
server:     file format elf64-x86-64


Disassembly of section .init:

0000000000402000 <_init>:
  402000:	f3 0f 1e fa          	endbr64
  402004:	48 83 ec 08          	sub    $0x8,%rsp
  402008:	48 8b 05 d9 6f 00 00 	mov    0x6fd9(%rip),%rax        # 408fe8 <__gmon_start__>
  40200f:	48 85 c0             	test   %rax,%rax
  402012:	74 02                	je     402016 <_init+0x16>
  402014:	ff d0                	callq  *%rax
  402016:	48 83 c4 08          	add    $0x8,%rsp
  40201a:	c3                   	retq

Disassembly of section .plt:

0000000000402020 <.plt>:
  402020:	ff 35 e2 6f 00 00    	pushq  0x6fe2(%rip)        # 409008 <_GLOBAL_OFFSET_TABLE_+0x8>
  402026:	ff 25 e4 6f 00 00    	jmpq   *0x6fe4(%rip)        # 409010 <_GLOBAL_OFFSET_TABLE_+0x10>
  40202c:	0f 1f 40 00          	nopl   0x0(%rax)

0000000000402030 <__errno_location@plt>:
  402030:	ff 25 e2 6f 00 00    	jmpq   *0x6fe2(%rip)        # 409018 <__errno_location@GLIBC_2.2.5>
  402036:	68 00 00 00 00       	pushq  $0x0
  40203b:	e9 e0 ff ff ff       	jmpq   402020 <.plt>

0000000000402040 <bind@plt>:
  402040:	ff 25 da 6f 00 00    	jmpq   *0x6fda(%rip)        # 409020 <bind@GLIBC_2.2.5>
  402046:	68 01 00 00 00       	pushq  $0x1
  40204b:	e9 d0 ff ff ff       	jmpq   402020 <.plt>

0000000000402050 <socket@plt>:
  402050:	ff 25 d2 6f 00 00    	jmpq   *0x6fd2(%rip)        # 409028 <socket@GLIBC_2.2.5>
  402056:	68 02 00 00 00       	pushq  $0x2
  40205b:	e9 c0 ff ff ff       	jmpq   402020 <.plt>

0000000000402060 <_ZSt9terminatev@plt>:
  402060:	ff 25 ca 6f 00 00    	jmpq   *0x6fca(%rip)        # 409030 <_ZSt9terminatev@GLIBCXX_3.4>
  402066:	68 03 00 00 00       	pushq  $0x3
  40206b:	e9 b0 ff ff ff       	jmpq   402020 <.plt>

0000000000402070 <accept@plt>:
  402070:	ff 25 c2 6f 00 00    	jmpq   *0x6fc2(%rip)        # 409038 <accept@GLIBC_2.2.5>
  402076:	68 04 00 00 00       	pushq  $0x4
  40207b:	e9 a0 ff ff ff       	jmpq   402020 <.plt>

0000000000402080 <_ZNSt8ios_baseD2Ev@plt>:
  402080:	ff 25 ba 6f 00 00    	jmpq   *0x6fba(%rip)        # 409040 <_ZNSt8ios_baseD2Ev@GLIBCXX_3.4>
  402086:	68 05 00 00 00       	pushq  $0x5
  40208b:	e9 90 ff ff ff       	jmpq   402020 <.plt>

0000000000402090 <write@plt>:
  402090:	ff 25 b2 6f 00 00    	jmpq   *0x6fb2(%rip)        # 409048 <write@GLIBC_2.2.5>
  402096:	68 06 00 00 00       	pushq  $0x6
  40209b:	e9 80 ff ff ff       	jmpq   402020 <.plt>

00000000004020a0 <_ZSt25__throw_bad_function_callv@plt>:
  4020a0:	ff 25 aa 6f 00 00    	jmpq   *0x6faa(%rip)        # 409050 <_ZSt25__throw_bad_function_callv@GLIBCXX_3.4.14>
  4020a6:	68 07 00 00 00       	pushq  $0x7
  4020ab:	e9 70 ff ff ff       	jmpq   402020 <.plt>

00000000004020b0 <__cxa_begin_catch@plt>:
  4020b0:	ff 25 a2 6f 00 00    	jmpq   *0x6fa2(%rip)        # 409058 <__cxa_begin_catch@CXXABI_1.3>
  4020b6:	68 08 00 00 00       	pushq  $0x8
  4020bb:	e9 60 ff ff ff       	jmpq   402020 <.plt>

00000000004020c0 <strlen@plt>:
  4020c0:	ff 25 9a 6f 00 00    	jmpq   *0x6f9a(%rip)        # 409060 <strlen@GLIBC_2.2.5>
  4020c6:	68 09 00 00 00       	pushq  $0x9
  4020cb:	e9 50 ff ff ff       	jmpq   402020 <.plt>

00000000004020d0 <_ZNSt7__cxx1112basic_stringIcSt11char_traitsIcESaIcEED2Ev@plt>:
  4020d0:	ff 25 92 6f 00 00    	jmpq   *0x6f92(%rip)        # 409068 <_ZNSt7__cxx1112basic_stringIcSt11char_traitsIcESaIcEED2Ev@GLIBCXX_3.4.21>
  4020d6:	68 0a 00 00 00       	pushq  $0xa
  4020db:	e9 40 ff ff ff       	jmpq   402020 <.plt>

00000000004020e0 <_ZNSt6thread6_StateD2Ev@plt>:
  4020e0:	ff 25 8a 6f 00 00    	jmpq   *0x6f8a(%rip)        # 409070 <_ZNSt6thread6_StateD2Ev@GLIBCXX_3.4.22>
  4020e6:	68 0b 00 00 00       	pushq  $0xb
  4020eb:	e9 30 ff ff ff       	jmpq   402020 <.plt>

00000000004020f0 <__cxa_allocate_exception@plt>:
  4020f0:	ff 25 82 6f 00 00    	jmpq   *0x6f82(%rip)        # 409078 <__cxa_allocate_exception@CXXABI_1.3>
  4020f6:	68 0c 00 00 00       	pushq  $0xc
  4020fb:	e9 20 ff ff ff       	jmpq   402020 <.plt>

0000000000402100 <_ZSt20__throw_length_errorPKc@plt>:
  402100:	ff 25 7a 6f 00 00    	jmpq   *0x6f7a(%rip)        # 409080 <_ZSt20__throw_length_errorPKc@GLIBCXX_3.4>
  402106:	68 0d 00 00 00       	pushq  $0xd
  40210b:	e9 10 ff ff ff       	jmpq   402020 <.plt>

0000000000402110 <_ZNSt7__cxx1112basic_stringIcSt11char_traitsIcESaIcEE9_M_assignERKS4_@plt>:
  402110:	ff 25 72 6f 00 00    	jmpq   *0x6f72(%rip)        # 409088 <_ZNSt7__cxx1112basic_stringIcSt11char_traitsIcESaIcEE9_M_assignERKS4_@GLIBCXX_3.4.21>
  402116:	68 0e 00 00 00       	pushq  $0xe
  40211b:	e9 00 ff ff ff       	jmpq   402020 <.plt>

0000000000402120 <pthread_create@plt>:
  402120:	ff 25 6a 6f 00 00    	jmpq   *0x6f6a(%rip)        # 409090 <pthread_create@GLIBC_2.2.5>
  402126:	68 0f 00 00 00       	pushq  $0xf
  40212b:	e9 f0 fe ff ff       	jmpq   402020 <.plt>

0000000000402130 <_ZSt20__throw_system_errori@plt>:
  402130:	ff 25 62 6f 00 00    	jmpq   *0x6f62(%rip)        # 409098 <_ZSt20__throw_system_errori@GLIBCXX_3.4.11>
  402136:	68 10 00 00 00       	pushq  $0x10
  40213b:	e9 e0 fe ff ff       	jmpq   402020 <.plt>

0000000000402140 <_ZNSo9_M_insertImEERSoT_@plt>:
  402140:	ff 25 5a 6f 00 00    	jmpq   *0x6f5a(%rip)        # 4090a0 <_ZNSo9_M_insertImEERSoT_@GLIBCXX_3.4.9>
  402146:	68 11 00 00 00       	pushq  $0x11
  40214b:	e9 d0 fe ff ff       	jmpq   402020 <.plt>

0000000000402150 <_ZNSt7__cxx1118basic_stringstreamIcSt11char_traitsIcESaIcEEC1Ev@plt>:
  402150:	ff 25 52 6f 00 00    	jmpq   *0x6f52(%rip)        # 4090a8 <_ZNSt7__cxx1118basic_stringstreamIcSt11char_traitsIcESaIcEEC1Ev@GLIBCXX_3.4.26>
  402156:	68 12 00 00 00       	pushq  $0x12
  40215b:	e9 c0 fe ff ff       	jmpq   402020 <.plt>

0000000000402160 <pthread_mutex_unlock@plt>:
  402160:	ff 25 4a 6f 00 00    	jmpq   *0x6f4a(%rip)        # 4090b0 <pthread_mutex_unlock@GLIBC_2.2.5>
  402166:	68 13 00 00 00       	pushq  $0x13
  40216b:	e9 b0 fe ff ff       	jmpq   402020 <.plt>

0000000000402170 <memcpy@plt>:
  402170:	ff 25 42 6f 00 00    	jmpq   *0x6f42(%rip)        # 4090b8 <memcpy@GLIBC_2.14>
  402176:	68 14 00 00 00       	pushq  $0x14
  40217b:	e9 a0 fe ff ff       	jmpq   402020 <.plt>

0000000000402180 <__cxa_atexit@plt>:
  402180:	ff 25 3a 6f 00 00    	jmpq   *0x6f3a(%rip)        # 4090c0 <__cxa_atexit@GLIBC_2.2.5>
  402186:	68 15 00 00 00       	pushq  $0x15
  40218b:	e9 90 fe ff ff       	jmpq   402020 <.plt>

0000000000402190 <_ZNSt6thread15_M_start_threadESt10unique_ptrINS_6_StateESt14default_deleteIS1_EEPFvvE@plt>:
  402190:	ff 25 32 6f 00 00    	jmpq   *0x6f32(%rip)        # 4090c8 <_ZNSt6thread15_M_start_threadESt10unique_ptrINS_6_StateESt14default_deleteIS1_EEPFvvE@GLIBCXX_3.4.22>
  402196:	68 16 00 00 00       	pushq  $0x16
  40219b:	e9 80 fe ff ff       	jmpq   402020 <.plt>

00000000004021a0 <_ZdlPv@plt>:
  4021a0:	ff 25 2a 6f 00 00    	jmpq   *0x6f2a(%rip)        # 4090d0 <_ZdlPv@GLIBCXX_3.4>
  4021a6:	68 17 00 00 00       	pushq  $0x17
  4021ab:	e9 70 fe ff ff       	jmpq   402020 <.plt>

00000000004021b0 <_Znwm@plt>:
  4021b0:	ff 25 22 6f 00 00    	jmpq   *0x6f22(%rip)        # 4090d8 <_Znwm@GLIBCXX_3.4>
  4021b6:	68 18 00 00 00       	pushq  $0x18
  4021bb:	e9 60 fe ff ff       	jmpq   402020 <.plt>

00000000004021c0 <listen@plt>:
  4021c0:	ff 25 1a 6f 00 00    	jmpq   *0x6f1a(%rip)        # 4090e0 <listen@GLIBC_2.2.5>
  4021c6:	68 19 00 00 00       	pushq  $0x19
  4021cb:	e9 50 fe ff ff       	jmpq   402020 <.plt>

00000000004021d0 <_ZSt16__ostream_insertIcSt11char_traitsIcEERSt13basic_ostreamIT_T0_ES6_PKS3_l@plt>:
  4021d0:	ff 25 12 6f 00 00    	jmpq   *0x6f12(%rip)        # 4090e8 <_ZSt16__ostream_insertIcSt11char_traitsIcEERSt13basic_ostreamIT_T0_ES6_PKS3_l@GLIBCXX_3.4.9>
  4021d6:	68 1a 00 00 00       	pushq  $0x1a
  4021db:	e9 40 fe ff ff       	jmpq   402020 <.plt>

00000000004021e0 <_ZStrsIcSt11char_traitsIcESaIcEERSt13basic_istreamIT_T0_ES7_RNSt7__cxx1112basic_stringIS4_S5_T1_EE@plt>:
  4021e0:	ff 25 0a 6f 00 00    	jmpq   *0x6f0a(%rip)        # 4090f0 <_ZStrsIcSt11char_traitsIcESaIcEERSt13basic_istreamIT_T0_ES7_RNSt7__cxx1112basic_stringIS4_S5_T1_EE@GLIBCXX_3.4.21>
  4021e6:	68 1b 00 00 00       	pushq  $0x1b
  4021eb:	e9 30 fe ff ff       	jmpq   402020 <.plt>

00000000004021f0 <_ZNSt6localeD1Ev@plt>:
  4021f0:	ff 25 02 6f 00 00    	jmpq   *0x6f02(%rip)        # 4090f8 <_ZNSt6localeD1Ev@GLIBCXX_3.4>
  4021f6:	68 1c 00 00 00       	pushq  $0x1c
  4021fb:	e9 20 fe ff ff       	jmpq   402020 <.plt>

0000000000402200 <read@plt>:
  402200:	ff 25 fa 6e 00 00    	jmpq   *0x6efa(%rip)        # 409100 <read@GLIBC_2.2.5>
  402206:	68 1d 00 00 00       	pushq  $0x1d
  40220b:	e9 10 fe ff ff       	jmpq   402020 <.plt>

0000000000402210 <sched_yield@plt>:
  402210:	ff 25 f2 6e 00 00    	jmpq   *0x6ef2(%rip)        # 409108 <sched_yield@GLIBC_2.2.5>
  402216:	68 1e 00 00 00       	pushq  $0x1e
  40221b:	e9 00 fe ff ff       	jmpq   402020 <.plt>

0000000000402220 <pthread_mutex_lock@plt>:
  402220:	ff 25 ea 6e 00 00    	jmpq   *0x6eea(%rip)        # 409110 <pthread_mutex_lock@GLIBC_2.2.5>
  402226:	68 1f 00 00 00       	pushq  $0x1f
  40222b:	e9 f0 fd ff ff       	jmpq   402020 <.plt>

0000000000402230 <poll@plt>:
  402230:	ff 25 e2 6e 00 00    	jmpq   *0x6ee2(%rip)        # 409118 <poll@GLIBC_2.2.5>
  402236:	68 20 00 00 00       	pushq  $0x20
  40223b:	e9 e0 fd ff ff       	jmpq   402020 <.plt>

0000000000402240 <_ZSt24__throw_out_of_range_fmtPKcz@plt>:
  402240:	ff 25 da 6e 00 00    	jmpq   *0x6eda(%rip)        # 409120 <_ZSt24__throw_out_of_range_fmtPKcz@GLIBCXX_3.4.20>
  402246:	68 21 00 00 00       	pushq  $0x21
  40224b:	e9 d0 fd ff ff       	jmpq   402020 <.plt>

0000000000402250 <_ZNSt8ios_base4InitC1Ev@plt>:
  402250:	ff 25 d2 6e 00 00    	jmpq   *0x6ed2(%rip)        # 409128 <_ZNSt8ios_base4InitC1Ev@GLIBCXX_3.4>
  402256:	68 22 00 00 00       	pushq  $0x22
  40225b:	e9 c0 fd ff ff       	jmpq   402020 <.plt>

0000000000402260 <_ZNSt7__cxx1112basic_stringIcSt11char_traitsIcESaIcEE10_M_replaceEmmPKcm@plt>:
  402260:	ff 25 ca 6e 00 00    	jmpq   *0x6eca(%rip)        # 409130 <_ZNSt7__cxx1112basic_stringIcSt11char_traitsIcESaIcEE10_M_replaceEmmPKcm@GLIBCXX_3.4.21>
  402266:	68 23 00 00 00       	pushq  $0x23
  40226b:	e9 b0 fd ff ff       	jmpq   402020 <.plt>

0000000000402270 <memmove@plt>:
  402270:	ff 25 c2 6e 00 00    	jmpq   *0x6ec2(%rip)        # 409138 <memmove@GLIBC_2.2.5>
  402276:	68 24 00 00 00       	pushq  $0x24
  40227b:	e9 a0 fd ff ff       	jmpq   402020 <.plt>

0000000000402280 <__gxx_personality_v0@plt>:
  402280:	ff 25 ba 6e 00 00    	jmpq   *0x6eba(%rip)        # 409140 <__gxx_personality_v0@CXXABI_1.3>
  402286:	68 25 00 00 00       	pushq  $0x25
  40228b:	e9 90 fd ff ff       	jmpq   402020 <.plt>

0000000000402290 <__pthread_key_create@plt>:
  402290:	ff 25 b2 6e 00 00    	jmpq   *0x6eb2(%rip)        # 409148 <__pthread_key_create@GLIBC_2.2.5>
  402296:	68 26 00 00 00       	pushq  $0x26
  40229b:	e9 80 fd ff ff       	jmpq   402020 <.plt>

00000000004022a0 <_ZNSt9basic_iosIcSt11char_traitsIcEE5clearESt12_Ios_Iostate@plt>:
  4022a0:	ff 25 aa 6e 00 00    	jmpq   *0x6eaa(%rip)        # 409150 <_ZNSt9basic_iosIcSt11char_traitsIcEE5clearESt12_Ios_Iostate@GLIBCXX_3.4>
  4022a6:	68 27 00 00 00       	pushq  $0x27
  4022ab:	e9 70 fd ff ff       	jmpq   402020 <.plt>

00000000004022b0 <_ZNSt6thread4joinEv@plt>:
  4022b0:	ff 25 a2 6e 00 00    	jmpq   *0x6ea2(%rip)        # 409158 <_ZNSt6thread4joinEv@GLIBCXX_3.4.11>
  4022b6:	68 28 00 00 00       	pushq  $0x28
  4022bb:	e9 60 fd ff ff       	jmpq   402020 <.plt>

00000000004022c0 <__cxa_throw@plt>:
  4022c0:	ff 25 9a 6e 00 00    	jmpq   *0x6e9a(%rip)        # 409160 <__cxa_throw@CXXABI_1.3>
  4022c6:	68 29 00 00 00       	pushq  $0x29
  4022cb:	e9 50 fd ff ff       	jmpq   402020 <.plt>

00000000004022d0 <_ZNSt6thread6detachEv@plt>:
  4022d0:	ff 25 92 6e 00 00    	jmpq   *0x6e92(%rip)        # 409168 <_ZNSt6thread6detachEv@GLIBCXX_3.4.11>
  4022d6:	68 2a 00 00 00       	pushq  $0x2a
  4022db:	e9 40 fd ff ff       	jmpq   402020 <.plt>

00000000004022e0 <_Unwind_Resume@plt>:
  4022e0:	ff 25 8a 6e 00 00    	jmpq   *0x6e8a(%rip)        # 409170 <_Unwind_Resume@GCC_3.0>
  4022e6:	68 2b 00 00 00       	pushq  $0x2b
  4022eb:	e9 30 fd ff ff       	jmpq   402020 <.plt>

00000000004022f0 <setsockopt@plt>:
  4022f0:	ff 25 82 6e 00 00    	jmpq   *0x6e82(%rip)        # 409178 <setsockopt@GLIBC_2.2.5>
  4022f6:	68 2c 00 00 00       	pushq  $0x2c
  4022fb:	e9 20 fd ff ff       	jmpq   402020 <.plt>

0000000000402300 <_ZNSt7__cxx1112basic_stringIcSt11char_traitsIcESaIcEE9_M_createERmm@plt>:
  402300:	ff 25 7a 6e 00 00    	jmpq   *0x6e7a(%rip)        # 409180 <_ZNSt7__cxx1112basic_stringIcSt11char_traitsIcESaIcEE9_M_createERmm@GLIBCXX_3.4.21>
  402306:	68 2d 00 00 00       	pushq  $0x2d
  40230b:	e9 10 fd ff ff       	jmpq   402020 <.plt>

0000000000402310 <_ZNSt9exceptionD2Ev@plt>:
  402310:	ff 25 72 6e 00 00    	jmpq   *0x6e72(%rip)        # 409188 <_ZNSt9exceptionD2Ev@GLIBCXX_3.4>
  402316:	68 2e 00 00 00       	pushq  $0x2e
  40231b:	e9 00 fd ff ff       	jmpq   402020 <.plt>

0000000000402320 <close@plt>:
  402320:	ff 25 6a 6e 00 00    	jmpq   *0x6e6a(%rip)        # 409190 <close@GLIBC_2.2.5>
  402326:	68 2f 00 00 00       	pushq  $0x2f
  40232b:	e9 f0 fc ff ff       	jmpq   402020 <.plt>

0000000000402330 <_ZNSt8ios_base4InitD1Ev@plt>:
  402330:	ff 25 62 6e 00 00    	jmpq   *0x6e62(%rip)        # 409198 <_ZNSt8ios_base4InitD1Ev@GLIBCXX_3.4>
  402336:	68 30 00 00 00       	pushq  $0x30
  40233b:	e9 e0 fc ff ff       	jmpq   402020 <.plt>

Disassembly of section .text:

0000000000402340 <_GLOBAL__sub_I_main.cpp>:
  402340:	50                   	push   %rax
  402341:	bf 39 95 40 00       	mov    $0x409539,%edi
  402346:	e8 05 ff ff ff       	callq  402250 <_ZNSt8ios_base4InitC1Ev@plt>
  40234b:	bf 30 23 40 00       	mov    $0x402330,%edi
  402350:	be 39 95 40 00       	mov    $0x409539,%esi
  402355:	ba a8 91 40 00       	mov    $0x4091a8,%edx
  40235a:	58                   	pop    %rax
  40235b:	e9 20 fe ff ff       	jmpq   402180 <__cxa_atexit@plt>

0000000000402360 <_GLOBAL__sub_I_client.cpp>:
  402360:	50                   	push   %rax
  402361:	bf 3a 95 40 00       	mov    $0x40953a,%edi
  402366:	e8 e5 fe ff ff       	callq  402250 <_ZNSt8ios_base4InitC1Ev@plt>
  40236b:	bf 30 23 40 00       	mov    $0x402330,%edi
  402370:	be 3a 95 40 00       	mov    $0x40953a,%esi
  402375:	ba a8 91 40 00       	mov    $0x4091a8,%edx
  40237a:	58                   	pop    %rax
  40237b:	e9 00 fe ff ff       	jmpq   402180 <__cxa_atexit@plt>

0000000000402380 <_GLOBAL__sub_I_server.cpp>:
  402380:	50                   	push   %rax
  402381:	bf 3b 95 40 00       	mov    $0x40953b,%edi
  402386:	e8 c5 fe ff ff       	callq  402250 <_ZNSt8ios_base4InitC1Ev@plt>
  40238b:	bf 30 23 40 00       	mov    $0x402330,%edi
  402390:	be 3b 95 40 00       	mov    $0x40953b,%esi
  402395:	ba a8 91 40 00       	mov    $0x4091a8,%edx
  40239a:	58                   	pop    %rax
  40239b:	e9 e0 fd ff ff       	jmpq   402180 <__cxa_atexit@plt>

00000000004023a0 <_start>:
  4023a0:	f3 0f 1e fa          	endbr64
  4023a4:	31 ed                	xor    %ebp,%ebp
  4023a6:	49 89 d1             	mov    %rdx,%r9
  4023a9:	5e                   	pop    %rsi
  4023aa:	48 89 e2             	mov    %rsp,%rdx
  4023ad:	48 83 e4 f0          	and    $0xfffffffffffffff0,%rsp
  4023b1:	50                   	push   %rax
  4023b2:	54                   	push   %rsp
  4023b3:	49 c7 c0 10 53 40 00 	mov    $0x405310,%r8
  4023ba:	48 c7 c1 a0 52 40 00 	mov    $0x4052a0,%rcx
  4023c1:	48 c7 c7 90 24 40 00 	mov    $0x402490,%rdi
  4023c8:	ff 15 12 6c 00 00    	callq  *0x6c12(%rip)        # 408fe0 <__libc_start_main@GLIBC_2.2.5>
  4023ce:	f4                   	hlt
  4023cf:	90                   	nop

00000000004023d0 <_dl_relocate_static_pie>:
  4023d0:	f3 0f 1e fa          	endbr64
  4023d4:	c3                   	retq
  4023d5:	66 2e 0f 1f 84 00 00 	nopw   %cs:0x0(%rax,%rax,1)
  4023dc:	00 00 00
  4023df:	90                   	nop

00000000004023e0 <deregister_tm_clones>:
  4023e0:	b8 b0 91 40 00       	mov    $0x4091b0,%eax
  4023e5:	48 3d b0 91 40 00    	cmp    $0x4091b0,%rax
  4023eb:	74 13                	je     402400 <deregister_tm_clones+0x20>
  4023ed:	b8 00 00 00 00       	mov    $0x0,%eax
  4023f2:	48 85 c0             	test   %rax,%rax
  4023f5:	74 09                	je     402400 <deregister_tm_clones+0x20>
  4023f7:	bf b0 91 40 00       	mov    $0x4091b0,%edi
  4023fc:	ff e0                	jmpq   *%rax
  4023fe:	66 90                	xchg   %ax,%ax
  402400:	c3                   	retq
  402401:	66 66 2e 0f 1f 84 00 	data16 nopw %cs:0x0(%rax,%rax,1)
  402408:	00 00 00 00
  40240c:	0f 1f 40 00          	nopl   0x0(%rax)

0000000000402410 <register_tm_clones>:
  402410:	be b0 91 40 00       	mov    $0x4091b0,%esi
  402415:	48 81 ee b0 91 40 00 	sub    $0x4091b0,%rsi
  40241c:	48 89 f0             	mov    %rsi,%rax
  40241f:	48 c1 ee 3f          	shr    $0x3f,%rsi
  402423:	48 c1 f8 03          	sar    $0x3,%rax
  402427:	48 01 c6             	add    %rax,%rsi
  40242a:	48 d1 fe             	sar    %rsi
  40242d:	74 11                	je     402440 <register_tm_clones+0x30>
  40242f:	b8 00 00 00 00       	mov    $0x0,%eax
  402434:	48 85 c0             	test   %rax,%rax
  402437:	74 07                	je     402440 <register_tm_clones+0x30>
  402439:	bf b0 91 40 00       	mov    $0x4091b0,%edi
  40243e:	ff e0                	jmpq   *%rax
  402440:	c3                   	retq
  402441:	66 66 2e 0f 1f 84 00 	data16 nopw %cs:0x0(%rax,%rax,1)
  402448:	00 00 00 00
  40244c:	0f 1f 40 00          	nopl   0x0(%rax)

0000000000402450 <__do_global_dtors_aux>:
  402450:	f3 0f 1e fa          	endbr64
  402454:	80 3d dd 70 00 00 00 	cmpb   $0x0,0x70dd(%rip)        # 409538 <completed.8059>
  40245b:	75 13                	jne    402470 <__do_global_dtors_aux+0x20>
  40245d:	55                   	push   %rbp
  40245e:	48 89 e5             	mov    %rsp,%rbp
  402461:	e8 7a ff ff ff       	callq  4023e0 <deregister_tm_clones>
  402466:	c6 05 cb 70 00 00 01 	movb   $0x1,0x70cb(%rip)        # 409538 <completed.8059>
  40246d:	5d                   	pop    %rbp
  40246e:	c3                   	retq
  40246f:	90                   	nop
  402470:	c3                   	retq
  402471:	66 66 2e 0f 1f 84 00 	data16 nopw %cs:0x0(%rax,%rax,1)
  402478:	00 00 00 00
  40247c:	0f 1f 40 00          	nopl   0x0(%rax)

0000000000402480 <frame_dummy>:
  402480:	f3 0f 1e fa          	endbr64
  402484:	eb 8a                	jmp    402410 <register_tm_clones>
  402486:	66 2e 0f 1f 84 00 00 	nopw   %cs:0x0(%rax,%rax,1)
  40248d:	00 00 00

0000000000402490 <main>:
  402490:	41 57                	push   %r15
  402492:	41 56                	push   %r14
  402494:	41 54                	push   %r12
  402496:	53                   	push   %rbx
  402497:	48 81 ec f8 00 00 00 	sub    $0xf8,%rsp
  40249e:	48 c7 44 24 68 64 00 	movq   $0x64,0x68(%rsp)
  4024a5:	00 00
  4024a7:	c7 44 24 70 e8 03 00 	movl   $0x3e8,0x70(%rsp)
  4024ae:	00
  4024af:	66 c7 44 24 74 90 1f 	movw   $0x1f90,0x74(%rsp)
  4024b6:	c6 44 24 76 00       	movb   $0x0,0x76(%rsp)
  4024bb:	48 8d 5c 24 78       	lea    0x78(%rsp),%rbx
  4024c0:	48 8d 74 24 68       	lea    0x68(%rsp),%rsi
  4024c5:	48 89 df             	mov    %rbx,%rdi
  4024c8:	e8 63 03 00 00       	callq  402830 <_ZN4HTTP6ServerC2ERKNS_13ConfigurationE>
  4024cd:	48 89 df             	mov    %rbx,%rdi
  4024d0:	e8 1b 17 00 00       	callq  403bf0 <_ZN4HTTP6Server5StartEv>
  4024d5:	4c 8d 74 24 58       	lea    0x58(%rsp),%r14
  4024da:	4c 89 74 24 48       	mov    %r14,0x48(%rsp)
  4024df:	c7 44 24 58 4d 61 69 	movl   $0x6e69614d,0x58(%rsp)
  4024e6:	6e
  4024e7:	48 c7 44 24 50 04 00 	movq   $0x4,0x50(%rsp)
  4024ee:	00 00
  4024f0:	c6 44 24 5c 00       	movb   $0x0,0x5c(%rsp)
  4024f5:	4c 8d 7c 24 18       	lea    0x18(%rsp),%r15
  4024fa:	4c 89 7c 24 08       	mov    %r15,0x8(%rsp)
  4024ff:	48 b8 53 65 72 76 65 	movabs $0x5320726576726553,%rax
  402506:	72 20 53
  402509:	48 89 44 24 18       	mov    %rax,0x18(%rsp)
  40250e:	48 b8 20 53 74 61 72 	movabs $0x6465747261745320,%rax
  402515:	74 65 64
  402518:	48 89 44 24 1e       	mov    %rax,0x1e(%rsp)
  40251d:	48 c7 44 24 10 0e 00 	movq   $0xe,0x10(%rsp)
  402524:	00 00
  402526:	c6 44 24 26 00       	movb   $0x0,0x26(%rsp)
  40252b:	bf 00 93 40 00       	mov    $0x409300,%edi
  402530:	be 3b 60 40 00       	mov    $0x40603b,%esi
  402535:	ba 15 00 00 00       	mov    $0x15,%edx
  40253a:	e8 91 fc ff ff       	callq  4021d0 <_ZSt16__ostream_insertIcSt11char_traitsIcEERSt13basic_ostreamIT_T0_ES6_PKS3_l@plt>
  40253f:	48 8b 74 24 48       	mov    0x48(%rsp),%rsi
  402544:	48 8b 54 24 50       	mov    0x50(%rsp),%rdx
  402549:	bf 00 93 40 00       	mov    $0x409300,%edi
  40254e:	e8 7d fc ff ff       	callq  4021d0 <_ZSt16__ostream_insertIcSt11char_traitsIcEERSt13basic_ostreamIT_T0_ES6_PKS3_l@plt>
  402553:	48 89 c3             	mov    %rax,%rbx
  402556:	be 51 60 40 00       	mov    $0x406051,%esi
  40255b:	ba 0b 00 00 00       	mov    $0xb,%edx
  402560:	48 89 c7             	mov    %rax,%rdi
  402563:	e8 68 fc ff ff       	callq  4021d0 <_ZSt16__ostream_insertIcSt11char_traitsIcEERSt13basic_ostreamIT_T0_ES6_PKS3_l@plt>
  402568:	48 8b 74 24 08       	mov    0x8(%rsp),%rsi
  40256d:	48 8b 54 24 10       	mov    0x10(%rsp),%rdx
  402572:	48 89 df             	mov    %rbx,%rdi
  402575:	e8 56 fc ff ff       	callq  4021d0 <_ZSt16__ostream_insertIcSt11char_traitsIcEERSt13basic_ostreamIT_T0_ES6_PKS3_l@plt>
  40257a:	be 5d 60 40 00       	mov    $0x40605d,%esi
  40257f:	ba 05 00 00 00       	mov    $0x5,%edx
  402584:	48 89 c7             	mov    %rax,%rdi
  402587:	e8 44 fc ff ff       	callq  4021d0 <_ZSt16__ostream_insertIcSt11char_traitsIcEERSt13basic_ostreamIT_T0_ES6_PKS3_l@plt>
  40258c:	48 8b 7c 24 08       	mov    0x8(%rsp),%rdi
  402591:	4c 39 ff             	cmp    %r15,%rdi
  402594:	74 05                	je     40259b <main+0x10b>
  402596:	e8 05 fc ff ff       	callq  4021a0 <_ZdlPv@plt>
  40259b:	48 8b 7c 24 48       	mov    0x48(%rsp),%rdi
  4025a0:	4c 39 f7             	cmp    %r14,%rdi
  4025a3:	74 05                	je     4025aa <main+0x11a>
  4025a5:	e8 f6 fb ff ff       	callq  4021a0 <_ZdlPv@plt>
  4025aa:	4c 89 74 24 48       	mov    %r14,0x48(%rsp)
  4025af:	48 c7 44 24 50 00 00 	movq   $0x0,0x50(%rsp)
  4025b6:	00 00
  4025b8:	c6 44 24 58 00       	movb   $0x0,0x58(%rsp)
  4025bd:	48 8d 74 24 48       	lea    0x48(%rsp),%rsi
  4025c2:	bf 20 94 40 00       	mov    $0x409420,%edi
  4025c7:	e8 14 fc ff ff       	callq  4021e0 <_ZStrsIcSt11char_traitsIcESaIcEERSt13basic_istreamIT_T0_ES7_RNSt7__cxx1112basic_stringIS4_S5_T1_EE@plt>
  4025cc:	4c 89 7c 24 08       	mov    %r15,0x8(%rsp)
  4025d1:	c7 44 24 18 4d 61 69 	movl   $0x6e69614d,0x18(%rsp)
  4025d8:	6e
  4025d9:	48 c7 44 24 10 04 00 	movq   $0x4,0x10(%rsp)
  4025e0:	00 00
  4025e2:	c6 44 24 1c 00       	movb   $0x0,0x1c(%rsp)
  4025e7:	4c 8d 64 24 38       	lea    0x38(%rsp),%r12
  4025ec:	4c 89 64 24 28       	mov    %r12,0x28(%rsp)
  4025f1:	48 b8 53 74 6f 70 70 	movabs $0x676e6970706f7453,%rax
  4025f8:	69 6e 67
  4025fb:	48 89 44 24 38       	mov    %rax,0x38(%rsp)
  402600:	c7 44 24 3f 67 2e 2e 	movl   $0x2e2e2e67,0x3f(%rsp)
  402607:	2e
  402608:	48 c7 44 24 30 0b 00 	movq   $0xb,0x30(%rsp)
  40260f:	00 00
  402611:	c6 44 24 43 00       	movb   $0x0,0x43(%rsp)
  402616:	bf 00 93 40 00       	mov    $0x409300,%edi
  40261b:	be 3b 60 40 00       	mov    $0x40603b,%esi
  402620:	ba 15 00 00 00       	mov    $0x15,%edx
  402625:	e8 a6 fb ff ff       	callq  4021d0 <_ZSt16__ostream_insertIcSt11char_traitsIcEERSt13basic_ostreamIT_T0_ES6_PKS3_l@plt>
  40262a:	48 8b 74 24 08       	mov    0x8(%rsp),%rsi
  40262f:	48 8b 54 24 10       	mov    0x10(%rsp),%rdx
  402634:	bf 00 93 40 00       	mov    $0x409300,%edi
  402639:	e8 92 fb ff ff       	callq  4021d0 <_ZSt16__ostream_insertIcSt11char_traitsIcEERSt13basic_ostreamIT_T0_ES6_PKS3_l@plt>
  40263e:	48 89 c3             	mov    %rax,%rbx
  402641:	be 51 60 40 00       	mov    $0x406051,%esi
  402646:	ba 0b 00 00 00       	mov    $0xb,%edx
  40264b:	48 89 c7             	mov    %rax,%rdi
  40264e:	e8 7d fb ff ff       	callq  4021d0 <_ZSt16__ostream_insertIcSt11char_traitsIcEERSt13basic_ostreamIT_T0_ES6_PKS3_l@plt>
  402653:	48 8b 74 24 28       	mov    0x28(%rsp),%rsi
  402658:	48 8b 54 24 30       	mov    0x30(%rsp),%rdx
  40265d:	48 89 df             	mov    %rbx,%rdi
  402660:	e8 6b fb ff ff       	callq  4021d0 <_ZSt16__ostream_insertIcSt11char_traitsIcEERSt13basic_ostreamIT_T0_ES6_PKS3_l@plt>
  402665:	be 5d 60 40 00       	mov    $0x40605d,%esi
  40266a:	ba 05 00 00 00       	mov    $0x5,%edx
  40266f:	48 89 c7             	mov    %rax,%rdi
  402672:	e8 59 fb ff ff       	callq  4021d0 <_ZSt16__ostream_insertIcSt11char_traitsIcEERSt13basic_ostreamIT_T0_ES6_PKS3_l@plt>
  402677:	48 8b 7c 24 28       	mov    0x28(%rsp),%rdi
  40267c:	4c 39 e7             	cmp    %r12,%rdi
  40267f:	74 05                	je     402686 <main+0x1f6>
  402681:	e8 1a fb ff ff       	callq  4021a0 <_ZdlPv@plt>
  402686:	48 8b 7c 24 08       	mov    0x8(%rsp),%rdi
  40268b:	4c 39 ff             	cmp    %r15,%rdi
  40268e:	74 05                	je     402695 <main+0x205>
  402690:	e8 0b fb ff ff       	callq  4021a0 <_ZdlPv@plt>
  402695:	c6 84 24 f0 00 00 00 	movb   $0x1,0xf0(%rsp)
  40269c:	01
  40269d:	48 8b bc 24 88 00 00 	mov    0x88(%rsp),%rdi
  4026a4:	00
  4026a5:	48 85 ff             	test   %rdi,%rdi
  4026a8:	74 05                	je     4026af <main+0x21f>
  4026aa:	e8 01 fc ff ff       	callq  4022b0 <_ZNSt6thread4joinEv@plt>
  4026af:	4c 89 7c 24 08       	mov    %r15,0x8(%rsp)
  4026b4:	c7 44 24 18 4d 61 69 	movl   $0x6e69614d,0x18(%rsp)
  4026bb:	6e
  4026bc:	48 c7 44 24 10 04 00 	movq   $0x4,0x10(%rsp)
  4026c3:	00 00
  4026c5:	c6 44 24 1c 00       	movb   $0x0,0x1c(%rsp)
  4026ca:	4c 89 64 24 28       	mov    %r12,0x28(%rsp)
  4026cf:	0f 28 05 3a 39 00 00 	movaps 0x393a(%rip),%xmm0        # 406010 <_IO_stdin_used+0x10>
  4026d6:	0f 11 44 24 30       	movups %xmm0,0x30(%rsp)
  4026db:	c6 44 24 40 00       	movb   $0x0,0x40(%rsp)
  4026e0:	bf 00 93 40 00       	mov    $0x409300,%edi
  4026e5:	be 3b 60 40 00       	mov    $0x40603b,%esi
  4026ea:	ba 15 00 00 00       	mov    $0x15,%edx
  4026ef:	e8 dc fa ff ff       	callq  4021d0 <_ZSt16__ostream_insertIcSt11char_traitsIcEERSt13basic_ostreamIT_T0_ES6_PKS3_l@plt>
  4026f4:	48 8b 74 24 08       	mov    0x8(%rsp),%rsi
  4026f9:	48 8b 54 24 10       	mov    0x10(%rsp),%rdx
  4026fe:	bf 00 93 40 00       	mov    $0x409300,%edi
  402703:	e8 c8 fa ff ff       	callq  4021d0 <_ZSt16__ostream_insertIcSt11char_traitsIcEERSt13basic_ostreamIT_T0_ES6_PKS3_l@plt>
  402708:	48 89 c3             	mov    %rax,%rbx
  40270b:	be 51 60 40 00       	mov    $0x406051,%esi
  402710:	ba 0b 00 00 00       	mov    $0xb,%edx
  402715:	48 89 c7             	mov    %rax,%rdi
  402718:	e8 b3 fa ff ff       	callq  4021d0 <_ZSt16__ostream_insertIcSt11char_traitsIcEERSt13basic_ostreamIT_T0_ES6_PKS3_l@plt>
  40271d:	48 8b 74 24 28       	mov    0x28(%rsp),%rsi
  402722:	48 8b 54 24 30       	mov    0x30(%rsp),%rdx
  402727:	48 89 df             	mov    %rbx,%rdi
  40272a:	e8 a1 fa ff ff       	callq  4021d0 <_ZSt16__ostream_insertIcSt11char_traitsIcEERSt13basic_ostreamIT_T0_ES6_PKS3_l@plt>
  40272f:	be 5d 60 40 00       	mov    $0x40605d,%esi
  402734:	ba 05 00 00 00       	mov    $0x5,%edx
  402739:	48 89 c7             	mov    %rax,%rdi
  40273c:	e8 8f fa ff ff       	callq  4021d0 <_ZSt16__ostream_insertIcSt11char_traitsIcEERSt13basic_ostreamIT_T0_ES6_PKS3_l@plt>
  402741:	48 8b 7c 24 28       	mov    0x28(%rsp),%rdi
  402746:	4c 39 e7             	cmp    %r12,%rdi
  402749:	74 05                	je     402750 <main+0x2c0>
  40274b:	e8 50 fa ff ff       	callq  4021a0 <_ZdlPv@plt>
  402750:	48 8b 7c 24 08       	mov    0x8(%rsp),%rdi
  402755:	4c 39 ff             	cmp    %r15,%rdi
  402758:	74 05                	je     40275f <main+0x2cf>
  40275a:	e8 41 fa ff ff       	callq  4021a0 <_ZdlPv@plt>
  40275f:	48 8b 7c 24 48       	mov    0x48(%rsp),%rdi
  402764:	4c 39 f7             	cmp    %r14,%rdi
  402767:	74 05                	je     40276e <main+0x2de>
  402769:	e8 32 fa ff ff       	callq  4021a0 <_ZdlPv@plt>
  40276e:	48 8d 7c 24 78       	lea    0x78(%rsp),%rdi
  402773:	e8 28 1f 00 00       	callq  4046a0 <_ZN4HTTP6ServerD1Ev>
  402778:	31 c0                	xor    %eax,%eax
  40277a:	48 81 c4 f8 00 00 00 	add    $0xf8,%rsp
  402781:	5b                   	pop    %rbx
  402782:	41 5c                	pop    %r12
  402784:	41 5e                	pop    %r14
  402786:	41 5f                	pop    %r15
  402788:	c3                   	retq
  402789:	48 89 c3             	mov    %rax,%rbx
  40278c:	48 8d 7c 24 78       	lea    0x78(%rsp),%rdi
  402791:	e8 0a 1f 00 00       	callq  4046a0 <_ZN4HTTP6ServerD1Ev>
  402796:	48 89 df             	mov    %rbx,%rdi
  402799:	e8 42 fb ff ff       	callq  4022e0 <_Unwind_Resume@plt>
  40279e:	48 89 c3             	mov    %rax,%rbx
  4027a1:	48 8b 7c 24 48       	mov    0x48(%rsp),%rdi
  4027a6:	4c 39 f7             	cmp    %r14,%rdi
  4027a9:	74 25                	je     4027d0 <main+0x340>
  4027ab:	eb 62                	jmp    40280f <main+0x37f>
  4027ad:	eb 00                	jmp    4027af <main+0x31f>
  4027af:	48 89 c3             	mov    %rax,%rbx
  4027b2:	48 8b 7c 24 28       	mov    0x28(%rsp),%rdi
  4027b7:	4c 39 e7             	cmp    %r12,%rdi
  4027ba:	75 26                	jne    4027e2 <main+0x352>
  4027bc:	48 8b 7c 24 08       	mov    0x8(%rsp),%rdi
  4027c1:	4c 39 ff             	cmp    %r15,%rdi
  4027c4:	75 3a                	jne    402800 <main+0x370>
  4027c6:	48 8b 7c 24 48       	mov    0x48(%rsp),%rdi
  4027cb:	4c 39 f7             	cmp    %r14,%rdi
  4027ce:	75 3f                	jne    40280f <main+0x37f>
  4027d0:	48 8d 7c 24 78       	lea    0x78(%rsp),%rdi
  4027d5:	e8 c6 1e 00 00       	callq  4046a0 <_ZN4HTTP6ServerD1Ev>
  4027da:	48 89 df             	mov    %rbx,%rdi
  4027dd:	e8 fe fa ff ff       	callq  4022e0 <_Unwind_Resume@plt>
  4027e2:	e8 b9 f9 ff ff       	callq  4021a0 <_ZdlPv@plt>
  4027e7:	48 8b 7c 24 08       	mov    0x8(%rsp),%rdi
  4027ec:	4c 39 ff             	cmp    %r15,%rdi
  4027ef:	74 d5                	je     4027c6 <main+0x336>
  4027f1:	eb 0d                	jmp    402800 <main+0x370>
  4027f3:	48 89 c3             	mov    %rax,%rbx
  4027f6:	48 8b 7c 24 08       	mov    0x8(%rsp),%rdi
  4027fb:	4c 39 ff             	cmp    %r15,%rdi
  4027fe:	74 c6                	je     4027c6 <main+0x336>
  402800:	e8 9b f9 ff ff       	callq  4021a0 <_ZdlPv@plt>
  402805:	48 8b 7c 24 48       	mov    0x48(%rsp),%rdi
  40280a:	4c 39 f7             	cmp    %r14,%rdi
  40280d:	74 c1                	je     4027d0 <main+0x340>
  40280f:	e8 8c f9 ff ff       	callq  4021a0 <_ZdlPv@plt>
  402814:	48 8d 7c 24 78       	lea    0x78(%rsp),%rdi
  402819:	e8 82 1e 00 00       	callq  4046a0 <_ZN4HTTP6ServerD1Ev>
  40281e:	48 89 df             	mov    %rbx,%rdi
  402821:	e8 ba fa ff ff       	callq  4022e0 <_Unwind_Resume@plt>
  402826:	66 2e 0f 1f 84 00 00 	nopw   %cs:0x0(%rax,%rax,1)
  40282d:	00 00 00

0000000000402830 <_ZN4HTTP6ServerC2ERKNS_13ConfigurationE>:
  402830:	55                   	push   %rbp
  402831:	41 57                	push   %r15
  402833:	41 56                	push   %r14
  402835:	41 55                	push   %r13
  402837:	41 54                	push   %r12
  402839:	53                   	push   %rbx
  40283a:	50                   	push   %rax
  40283b:	49 89 fd             	mov    %rdi,%r13
  40283e:	0f 10 06             	movups (%rsi),%xmm0
  402841:	0f 11 07             	movups %xmm0,(%rdi)
  402844:	48 c7 47 10 00 00 00 	movq   $0x0,0x10(%rdi)
  40284b:	00
  40284c:	c7 47 18 ff ff ff ff 	movl   $0xffffffff,0x18(%rdi)
  402853:	4c 8d 77 20          	lea    0x20(%rdi),%r14
  402857:	0f 57 c0             	xorps  %xmm0,%xmm0
  40285a:	0f 11 47 20          	movups %xmm0,0x20(%rdi)
  40285e:	0f 11 47 30          	movups %xmm0,0x30(%rdi)
  402862:	0f 11 47 40          	movups %xmm0,0x40(%rdi)
  402866:	0f 11 47 50          	movups %xmm0,0x50(%rdi)
  40286a:	0f 11 47 60          	movups %xmm0,0x60(%rdi)
  40286e:	0f 11 47 69          	movups %xmm0,0x69(%rdi)
  402872:	e8 69 1f 00 00       	callq  4047e0 <_ZNK4HTTP6Server18CheckConfigurationEv>
  402877:	48 83 c4 08          	add    $0x8,%rsp
  40287b:	5b                   	pop    %rbx
  40287c:	41 5c                	pop    %r12
  40287e:	41 5d                	pop    %r13
  402880:	41 5e                	pop    %r14
  402882:	41 5f                	pop    %r15
  402884:	5d                   	pop    %rbp
  402885:	c3                   	retq
  402886:	48 89 04 24          	mov    %rax,(%rsp)
  40288a:	4d 8b 7d 60          	mov    0x60(%r13),%r15
  40288e:	49 8b 6d 68          	mov    0x68(%r13),%rbp
  402892:	49 39 ef             	cmp    %rbp,%r15
  402895:	75 1a                	jne    4028b1 <_ZN4HTTP6ServerC2ERKNS_13ConfigurationE+0x81>
  402897:	eb 73                	jmp    40290c <_ZN4HTTP6ServerC2ERKNS_13ConfigurationE+0xdc>
  402899:	4c 89 e7             	mov    %r12,%rdi
  40289c:	e8 ff f8 ff ff       	callq  4021a0 <_ZdlPv@plt>
  4028a1:	49 c7 07 00 00 00 00 	movq   $0x0,(%r15)
  4028a8:	49 83 c7 08          	add    $0x8,%r15
  4028ac:	4c 39 fd             	cmp    %r15,%rbp
  4028af:	74 57                	je     402908 <_ZN4HTTP6ServerC2ERKNS_13ConfigurationE+0xd8>
  4028b1:	4d 8b 27             	mov    (%r15),%r12
  4028b4:	4d 85 e4             	test   %r12,%r12
  4028b7:	74 e8                	je     4028a1 <_ZN4HTTP6ServerC2ERKNS_13ConfigurationE+0x71>
  4028b9:	49 83 7c 24 58 00    	cmpq   $0x0,0x58(%r12)
  4028bf:	0f 85 c1 00 00 00    	jne    402986 <_ZN4HTTP6ServerC2ERKNS_13ConfigurationE+0x156>
  4028c5:	49 8b 7c 24 28       	mov    0x28(%r12),%rdi
  4028ca:	49 8d 44 24 38       	lea    0x38(%r12),%rax
  4028cf:	48 39 c7             	cmp    %rax,%rdi
  4028d2:	74 05                	je     4028d9 <_ZN4HTTP6ServerC2ERKNS_13ConfigurationE+0xa9>
  4028d4:	e8 c7 f8 ff ff       	callq  4021a0 <_ZdlPv@plt>
  4028d9:	49 8b 7c 24 08       	mov    0x8(%r12),%rdi
  4028de:	49 8d 44 24 18       	lea    0x18(%r12),%rax
  4028e3:	48 39 c7             	cmp    %rax,%rdi
  4028e6:	74 05                	je     4028ed <_ZN4HTTP6ServerC2ERKNS_13ConfigurationE+0xbd>
  4028e8:	e8 b3 f8 ff ff       	callq  4021a0 <_ZdlPv@plt>
  4028ed:	49 8b 1c 24          	mov    (%r12),%rbx
  4028f1:	48 85 db             	test   %rbx,%rbx
  4028f4:	74 a3                	je     402899 <_ZN4HTTP6ServerC2ERKNS_13ConfigurationE+0x69>
  4028f6:	48 89 df             	mov    %rbx,%rdi
  4028f9:	e8 b2 00 00 00       	callq  4029b0 <_ZN10ConnectionD1Ev>
  4028fe:	48 89 df             	mov    %rbx,%rdi
  402901:	e8 9a f8 ff ff       	callq  4021a0 <_ZdlPv@plt>
  402906:	eb 91                	jmp    402899 <_ZN4HTTP6ServerC2ERKNS_13ConfigurationE+0x69>
  402908:	4d 8b 7d 60          	mov    0x60(%r13),%r15
  40290c:	4d 85 ff             	test   %r15,%r15
  40290f:	74 08                	je     402919 <_ZN4HTTP6ServerC2ERKNS_13ConfigurationE+0xe9>
  402911:	4c 89 ff             	mov    %r15,%rdi
  402914:	e8 87 f8 ff ff       	callq  4021a0 <_ZdlPv@plt>
  402919:	49 8b 5d 20          	mov    0x20(%r13),%rbx
  40291d:	49 8b 6d 28          	mov    0x28(%r13),%rbp
  402921:	48 39 eb             	cmp    %rbp,%rbx
  402924:	75 13                	jne    402939 <_ZN4HTTP6ServerC2ERKNS_13ConfigurationE+0x109>
  402926:	eb 2c                	jmp    402954 <_ZN4HTTP6ServerC2ERKNS_13ConfigurationE+0x124>
  402928:	0f 1f 84 00 00 00 00 	nopl   0x0(%rax,%rax,1)
  40292f:	00
  402930:	48 83 c3 20          	add    $0x20,%rbx
  402934:	48 39 dd             	cmp    %rbx,%rbp
  402937:	74 18                	je     402951 <_ZN4HTTP6ServerC2ERKNS_13ConfigurationE+0x121>
  402939:	48 8b 43 10          	mov    0x10(%rbx),%rax
  40293d:	48 85 c0             	test   %rax,%rax
  402940:	74 ee                	je     402930 <_ZN4HTTP6ServerC2ERKNS_13ConfigurationE+0x100>
  402942:	48 89 df             	mov    %rbx,%rdi
  402945:	48 89 de             	mov    %rbx,%rsi
  402948:	ba 03 00 00 00       	mov    $0x3,%edx
  40294d:	ff d0                	callq  *%rax
  40294f:	eb df                	jmp    402930 <_ZN4HTTP6ServerC2ERKNS_13ConfigurationE+0x100>
  402951:	49 8b 1e             	mov    (%r14),%rbx
  402954:	48 85 db             	test   %rbx,%rbx
  402957:	74 08                	je     402961 <_ZN4HTTP6ServerC2ERKNS_13ConfigurationE+0x131>
  402959:	48 89 df             	mov    %rbx,%rdi
  40295c:	e8 3f f8 ff ff       	callq  4021a0 <_ZdlPv@plt>
  402961:	49 8b 7d 10          	mov    0x10(%r13),%rdi
  402965:	48 85 ff             	test   %rdi,%rdi
  402968:	74 0b                	je     402975 <_ZN4HTTP6ServerC2ERKNS_13ConfigurationE+0x145>
  40296a:	48 83 3f 00          	cmpq   $0x0,(%rdi)
  40296e:	75 16                	jne    402986 <_ZN4HTTP6ServerC2ERKNS_13ConfigurationE+0x156>
  402970:	e8 2b f8 ff ff       	callq  4021a0 <_ZdlPv@plt>
  402975:	49 c7 45 10 00 00 00 	movq   $0x0,0x10(%r13)
  40297c:	00
  40297d:	48 8b 3c 24          	mov    (%rsp),%rdi
  402981:	e8 5a f9 ff ff       	callq  4022e0 <_Unwind_Resume@plt>
  402986:	e8 d5 f6 ff ff       	callq  402060 <_ZSt9terminatev@plt>
  40298b:	48 89 c7             	mov    %rax,%rdi
  40298e:	e8 0d 00 00 00       	callq  4029a0 <__clang_call_terminate>
  402993:	66 2e 0f 1f 84 00 00 	nopw   %cs:0x0(%rax,%rax,1)
  40299a:	00 00 00
  40299d:	0f 1f 00             	nopl   (%rax)

00000000004029a0 <__clang_call_terminate>:
  4029a0:	50                   	push   %rax
  4029a1:	e8 0a f7 ff ff       	callq  4020b0 <__cxa_begin_catch@plt>
  4029a6:	e8 b5 f6 ff ff       	callq  402060 <_ZSt9terminatev@plt>
  4029ab:	0f 1f 44 00 00       	nopl   0x0(%rax,%rax,1)

00000000004029b0 <_ZN10ConnectionD1Ev>:
  4029b0:	53                   	push   %rbx
  4029b1:	48 89 fb             	mov    %rdi,%rbx
  4029b4:	8b 7f 08             	mov    0x8(%rdi),%edi
  4029b7:	e8 64 f9 ff ff       	callq  402320 <close@plt>
  4029bc:	c7 43 08 ff ff ff ff 	movl   $0xffffffff,0x8(%rbx)
  4029c3:	5b                   	pop    %rbx
  4029c4:	c3                   	retq
  4029c5:	48 89 c7             	mov    %rax,%rdi
  4029c8:	e8 d3 ff ff ff       	callq  4029a0 <__clang_call_terminate>
  4029cd:	0f 1f 00             	nopl   (%rax)

00000000004029d0 <_ZN10Connection5SetupERKN4HTTP13ConfigurationE>:
  4029d0:	80 7f 0c 00          	cmpb   $0x0,0xc(%rdi)
  4029d4:	0f 94 c0             	sete   %al
  4029d7:	c3                   	retq
  4029d8:	0f 1f 84 00 00 00 00 	nopl   0x0(%rax,%rax,1)
  4029df:	00

00000000004029e0 <_ZN10Connection8ReadCharEPc>:
  4029e0:	50                   	push   %rax
  4029e1:	48 85 f6             	test   %rsi,%rsi
  4029e4:	74 06                	je     4029ec <_ZN10Connection8ReadCharEPc+0xc>
  4029e6:	80 7f 0c 00          	cmpb   $0x0,0xc(%rdi)
  4029ea:	74 04                	je     4029f0 <_ZN10Connection8ReadCharEPc+0x10>
  4029ec:	31 c0                	xor    %eax,%eax
  4029ee:	59                   	pop    %rcx
  4029ef:	c3                   	retq
  4029f0:	8b 7f 08             	mov    0x8(%rdi),%edi
  4029f3:	ba 01 00 00 00       	mov    $0x1,%edx
  4029f8:	e8 03 f8 ff ff       	callq  402200 <read@plt>
  4029fd:	83 f8 ff             	cmp    $0xffffffff,%eax
  402a00:	0f 95 c0             	setne  %al
  402a03:	59                   	pop    %rcx
  402a04:	c3                   	retq
  402a05:	48 89 c7             	mov    %rax,%rdi
  402a08:	e8 93 ff ff ff       	callq  4029a0 <__clang_call_terminate>
  402a0d:	0f 1f 00             	nopl   (%rax)

0000000000402a10 <_ZN10Connection11WriteStringERKNSt7__cxx1112basic_stringIcSt11char_traitsIcESaIcEEEb>:
  402a10:	50                   	push   %rax
  402a11:	8b 7f 08             	mov    0x8(%rdi),%edi
  402a14:	48 8b 06             	mov    (%rsi),%rax
  402a17:	89 d2                	mov    %edx,%edx
  402a19:	48 03 56 08          	add    0x8(%rsi),%rdx
  402a1d:	48 89 c6             	mov    %rax,%rsi
  402a20:	e8 6b f6 ff ff       	callq  402090 <write@plt>
  402a25:	83 f8 ff             	cmp    $0xffffffff,%eax
  402a28:	0f 95 c0             	setne  %al
  402a2b:	59                   	pop    %rcx
  402a2c:	c3                   	retq
  402a2d:	48 89 c7             	mov    %rax,%rdi
  402a30:	e8 6b ff ff ff       	callq  4029a0 <__clang_call_terminate>
  402a35:	66 2e 0f 1f 84 00 00 	nopw   %cs:0x0(%rax,%rax,1)
  402a3c:	00 00 00
  402a3f:	90                   	nop

0000000000402a40 <_ZN4HTTP6ClientC1EPNS_6ServerEi>:
  402a40:	55                   	push   %rbp
  402a41:	41 56                	push   %r14
  402a43:	53                   	push   %rbx
  402a44:	48 83 ec 10          	sub    $0x10,%rsp
  402a48:	89 d5                	mov    %edx,%ebp
  402a4a:	49 89 f6             	mov    %rsi,%r14
  402a4d:	48 89 fb             	mov    %rdi,%rbx
  402a50:	bf 10 00 00 00       	mov    $0x10,%edi
  402a55:	e8 56 f7 ff ff       	callq  4021b0 <_Znwm@plt>
  402a5a:	41 8a 4e 0e          	mov    0xe(%r14),%cl
  402a5e:	89 68 08             	mov    %ebp,0x8(%rax)
  402a61:	88 48 0c             	mov    %cl,0xc(%rax)
  402a64:	48 89 03             	mov    %rax,(%rbx)
  402a67:	48 8d 43 18          	lea    0x18(%rbx),%rax
  402a6b:	48 89 43 08          	mov    %rax,0x8(%rbx)
  402a6f:	48 c7 43 10 00 00 00 	movq   $0x0,0x10(%rbx)
  402a76:	00
  402a77:	c6 43 18 00          	movb   $0x0,0x18(%rbx)
  402a7b:	48 8d 43 38          	lea    0x38(%rbx),%rax
  402a7f:	48 89 43 28          	mov    %rax,0x28(%rbx)
  402a83:	48 c7 43 30 00 00 00 	movq   $0x0,0x30(%rbx)
  402a8a:	00
  402a8b:	c6 43 38 00          	movb   $0x0,0x38(%rbx)
  402a8f:	c6 43 48 00          	movb   $0x0,0x48(%rbx)
  402a93:	4c 89 73 50          	mov    %r14,0x50(%rbx)
  402a97:	48 c7 43 58 00 00 00 	movq   $0x0,0x58(%rbx)
  402a9e:	00
  402a9f:	bf 20 00 00 00       	mov    $0x20,%edi
  402aa4:	e8 07 f7 ff ff       	callq  4021b0 <_Znwm@plt>
  402aa9:	48 8d 7b 58          	lea    0x58(%rbx),%rdi
  402aad:	48 c7 00 e8 60 40 00 	movq   $0x4060e8,(%rax)
  402ab4:	48 89 58 08          	mov    %rbx,0x8(%rax)
  402ab8:	48 c7 40 10 30 2b 40 	movq   $0x402b30,0x10(%rax)
  402abf:	00
  402ac0:	48 c7 40 18 00 00 00 	movq   $0x0,0x18(%rax)
  402ac7:	00
  402ac8:	48 89 44 24 08       	mov    %rax,0x8(%rsp)
  402acd:	48 8d 74 24 08       	lea    0x8(%rsp),%rsi
  402ad2:	ba 20 21 40 00       	mov    $0x402120,%edx
  402ad7:	e8 b4 f6 ff ff       	callq  402190 <_ZNSt6thread15_M_start_threadESt10unique_ptrINS_6_StateESt14default_deleteIS1_EEPFvvE@plt>
  402adc:	48 8b 7c 24 08       	mov    0x8(%rsp),%rdi
  402ae1:	48 85 ff             	test   %rdi,%rdi
  402ae4:	74 06                	je     402aec <_ZN4HTTP6ClientC1EPNS_6ServerEi+0xac>
  402ae6:	48 8b 07             	mov    (%rdi),%rax
  402ae9:	ff 50 08             	callq  *0x8(%rax)
  402aec:	48 83 c4 10          	add    $0x10,%rsp
  402af0:	5b                   	pop    %rbx
  402af1:	41 5e                	pop    %r14
  402af3:	5d                   	pop    %rbp
  402af4:	c3                   	retq
  402af5:	49 89 c6             	mov    %rax,%r14
  402af8:	48 8b 7c 24 08       	mov    0x8(%rsp),%rdi
  402afd:	48 85 ff             	test   %rdi,%rdi
  402b00:	74 0b                	je     402b0d <_ZN4HTTP6ClientC1EPNS_6ServerEi+0xcd>
  402b02:	48 8b 07             	mov    (%rdi),%rax
  402b05:	ff 50 08             	callq  *0x8(%rax)
  402b08:	eb 03                	jmp    402b0d <_ZN4HTTP6ClientC1EPNS_6ServerEi+0xcd>
  402b0a:	49 89 c6             	mov    %rax,%r14
  402b0d:	48 8d 7b 08          	lea    0x8(%rbx),%rdi
  402b11:	e8 2a 10 00 00       	callq  403b40 <_ZN4HTTP7RequestD2Ev>
  402b16:	48 89 df             	mov    %rbx,%rdi
  402b19:	e8 52 10 00 00       	callq  403b70 <_ZNSt10unique_ptrI10ConnectionSt14default_deleteIS0_EED2Ev>
  402b1e:	4c 89 f7             	mov    %r14,%rdi
  402b21:	e8 7a fe ff ff       	callq  4029a0 <__clang_call_terminate>
  402b26:	48 89 c7             	mov    %rax,%rdi
  402b29:	e8 72 fe ff ff       	callq  4029a0 <__clang_call_terminate>
  402b2e:	66 90                	xchg   %ax,%ax

0000000000402b30 <_ZN4HTTP6Client10EntrypointEv>:
  402b30:	41 56                	push   %r14
  402b32:	53                   	push   %rbx
  402b33:	50                   	push   %rax
  402b34:	48 89 fb             	mov    %rdi,%rbx
  402b37:	66 0f 1f 84 00 00 00 	nopw   0x0(%rax,%rax,1)
  402b3e:	00 00
  402b40:	48 89 df             	mov    %rbx,%rdi
  402b43:	e8 a8 00 00 00       	callq  402bf0 <_ZN4HTTP6Client13ConsumeMethodEv>
  402b48:	83 f8 07             	cmp    $0x7,%eax
  402b4b:	75 2d                	jne    402b7a <_ZN4HTTP6Client10EntrypointEv+0x4a>
  402b4d:	48 89 df             	mov    %rbx,%rdi
  402b50:	e8 2b 05 00 00       	callq  403080 <_ZN4HTTP6Client11ConsumePathEv>
  402b55:	83 f8 07             	cmp    $0x7,%eax
  402b58:	75 20                	jne    402b7a <_ZN4HTTP6Client10EntrypointEv+0x4a>
  402b5a:	48 89 df             	mov    %rbx,%rdi
  402b5d:	e8 fe 08 00 00       	callq  403460 <_ZN4HTTP6Client14ConsumeVersionEv>
  402b62:	83 f8 07             	cmp    $0x7,%eax
  402b65:	75 13                	jne    402b7a <_ZN4HTTP6Client10EntrypointEv+0x4a>
  402b67:	48 89 df             	mov    %rbx,%rdi
  402b6a:	e8 31 0a 00 00       	callq  4035a0 <_ZN4HTTP6Client13HandleRequestEv>
  402b6f:	83 f8 07             	cmp    $0x7,%eax
  402b72:	75 06                	jne    402b7a <_ZN4HTTP6Client10EntrypointEv+0x4a>
  402b74:	80 7b 48 00          	cmpb   $0x0,0x48(%rbx)
  402b78:	75 c6                	jne    402b40 <_ZN4HTTP6Client10EntrypointEv+0x10>
  402b7a:	4c 8b 33             	mov    (%rbx),%r14
  402b7d:	48 c7 03 00 00 00 00 	movq   $0x0,(%rbx)
  402b84:	4d 85 f6             	test   %r14,%r14
  402b87:	74 10                	je     402b99 <_ZN4HTTP6Client10EntrypointEv+0x69>
  402b89:	4c 89 f7             	mov    %r14,%rdi
  402b8c:	e8 1f fe ff ff       	callq  4029b0 <_ZN10ConnectionD1Ev>
  402b91:	4c 89 f7             	mov    %r14,%rdi
  402b94:	e8 07 f6 ff ff       	callq  4021a0 <_ZdlPv@plt>
  402b99:	48 8b 7b 50          	mov    0x50(%rbx),%rdi
  402b9d:	48 83 c3 58          	add    $0x58,%rbx
  402ba1:	48 89 de             	mov    %rbx,%rsi
  402ba4:	48 83 c4 08          	add    $0x8,%rsp
  402ba8:	5b                   	pop    %rbx
  402ba9:	41 5e                	pop    %r14
  402bab:	e9 00 1e 00 00       	jmpq   4049b0 <_ZN4HTTP6Server17SignalClientDeathESt17reference_wrapperISt6threadE>

0000000000402bb0 <_ZN4HTTP6Client5CleanEv>:
  402bb0:	41 56                	push   %r14
  402bb2:	53                   	push   %rbx
  402bb3:	50                   	push   %rax
  402bb4:	48 89 fb             	mov    %rdi,%rbx
  402bb7:	4c 8b 37             	mov    (%rdi),%r14
  402bba:	48 c7 07 00 00 00 00 	movq   $0x0,(%rdi)
  402bc1:	4d 85 f6             	test   %r14,%r14
  402bc4:	74 10                	je     402bd6 <_ZN4HTTP6Client5CleanEv+0x26>
  402bc6:	4c 89 f7             	mov    %r14,%rdi
  402bc9:	e8 e2 fd ff ff       	callq  4029b0 <_ZN10ConnectionD1Ev>
  402bce:	4c 89 f7             	mov    %r14,%rdi
  402bd1:	e8 ca f5 ff ff       	callq  4021a0 <_ZdlPv@plt>
  402bd6:	48 8b 7b 50          	mov    0x50(%rbx),%rdi
  402bda:	48 83 c3 58          	add    $0x58,%rbx
  402bde:	48 89 de             	mov    %rbx,%rsi
  402be1:	48 83 c4 08          	add    $0x8,%rsp
  402be5:	5b                   	pop    %rbx
  402be6:	41 5e                	pop    %r14
  402be8:	e9 c3 1d 00 00       	jmpq   4049b0 <_ZN4HTTP6Server17SignalClientDeathESt17reference_wrapperISt6threadE>
  402bed:	0f 1f 00             	nopl   (%rax)

0000000000402bf0 <_ZN4HTTP6Client13ConsumeMethodEv>:
  402bf0:	55                   	push   %rbp
  402bf1:	41 57                	push   %r15
  402bf3:	41 56                	push   %r14
  402bf5:	41 55                	push   %r13
  402bf7:	41 54                	push   %r12
  402bf9:	53                   	push   %rbx
  402bfa:	48 83 ec 58          	sub    $0x58,%rsp
  402bfe:	49 89 fc             	mov    %rdi,%r12
  402c01:	0f 57 c0             	xorps  %xmm0,%xmm0
  402c04:	0f 29 44 24 10       	movaps %xmm0,0x10(%rsp)
  402c09:	48 c7 44 24 20 00 00 	movq   $0x0,0x20(%rsp)
  402c10:	00 00
  402c12:	bf 04 00 00 00       	mov    $0x4,%edi
  402c17:	e8 94 f5 ff ff       	callq  4021b0 <_Znwm@plt>
  402c1c:	48 89 c3             	mov    %rax,%rbx
  402c1f:	48 8b 6c 24 10       	mov    0x10(%rsp),%rbp
  402c24:	48 8b 54 24 18       	mov    0x18(%rsp),%rdx
  402c29:	48 29 ea             	sub    %rbp,%rdx
  402c2c:	48 85 d2             	test   %rdx,%rdx
  402c2f:	7e 0b                	jle    402c3c <_ZN4HTTP6Client13ConsumeMethodEv+0x4c>
  402c31:	48 89 df             	mov    %rbx,%rdi
  402c34:	48 89 ee             	mov    %rbp,%rsi
  402c37:	e8 34 f6 ff ff       	callq  402270 <memmove@plt>
  402c3c:	48 85 ed             	test   %rbp,%rbp
  402c3f:	74 08                	je     402c49 <_ZN4HTTP6Client13ConsumeMethodEv+0x59>
  402c41:	48 89 ef             	mov    %rbp,%rdi
  402c44:	e8 57 f5 ff ff       	callq  4021a0 <_ZdlPv@plt>
  402c49:	48 89 5c 24 10       	mov    %rbx,0x10(%rsp)
  402c4e:	48 89 5c 24 18       	mov    %rbx,0x18(%rsp)
  402c53:	48 83 c3 04          	add    $0x4,%rbx
  402c57:	48 89 5c 24 20       	mov    %rbx,0x20(%rsp)
  402c5c:	c6 44 24 0f 00       	movb   $0x0,0xf(%rsp)
  402c61:	49 8b 3c 24          	mov    (%r12),%rdi
  402c65:	48 8d 74 24 0f       	lea    0xf(%rsp),%rsi
  402c6a:	e8 71 fd ff ff       	callq  4029e0 <_ZN10Connection8ReadCharEPc>
  402c6f:	31 db                	xor    %ebx,%ebx
  402c71:	84 c0                	test   %al,%al
  402c73:	0f 84 d3 01 00 00    	je     402e4c <_ZN4HTTP6Client13ConsumeMethodEv+0x25c>
  402c79:	49 bf ff ff ff ff ff 	movabs $0x7fffffffffffffff,%r15
  402c80:	ff ff 7f
  402c83:	4c 8d 74 24 18       	lea    0x18(%rsp),%r14
  402c88:	48 8d 6c 24 0f       	lea    0xf(%rsp),%rbp
  402c8d:	4c 89 64 24 50       	mov    %r12,0x50(%rsp)
  402c92:	eb 46                	jmp    402cda <_ZN4HTTP6Client13ConsumeMethodEv+0xea>
  402c94:	66 2e 0f 1f 84 00 00 	nopw   %cs:0x0(%rax,%rax,1)
  402c9b:	00 00 00
  402c9e:	66 90                	xchg   %ax,%ax
  402ca0:	48 8b 5c 24 18       	mov    0x18(%rsp),%rbx
  402ca5:	48 3b 5c 24 20       	cmp    0x20(%rsp),%rbx
  402caa:	0f 84 a0 00 00 00    	je     402d50 <_ZN4HTTP6Client13ConsumeMethodEv+0x160>
  402cb0:	88 0b                	mov    %cl,(%rbx)
  402cb2:	4c 8b 6c 24 18       	mov    0x18(%rsp),%r13
  402cb7:	49 83 c5 01          	add    $0x1,%r13
  402cbb:	4c 89 f0             	mov    %r14,%rax
  402cbe:	4c 89 28             	mov    %r13,(%rax)
  402cc1:	c6 44 24 0f 00       	movb   $0x0,0xf(%rsp)
  402cc6:	49 8b 3c 24          	mov    (%r12),%rdi
  402cca:	48 89 ee             	mov    %rbp,%rsi
  402ccd:	e8 0e fd ff ff       	callq  4029e0 <_ZN10Connection8ReadCharEPc>
  402cd2:	84 c0                	test   %al,%al
  402cd4:	0f 84 70 01 00 00    	je     402e4a <_ZN4HTTP6Client13ConsumeMethodEv+0x25a>
  402cda:	0f b6 4c 24 0f       	movzbl 0xf(%rsp),%ecx
  402cdf:	80 f9 20             	cmp    $0x20,%cl
  402ce2:	0f 84 1b 01 00 00    	je     402e03 <_ZN4HTTP6Client13ConsumeMethodEv+0x213>
  402ce8:	bb 04 00 00 00       	mov    $0x4,%ebx
  402ced:	80 f9 21             	cmp    $0x21,%cl
  402cf0:	0f 8c 56 01 00 00    	jl     402e4c <_ZN4HTTP6Client13ConsumeMethodEv+0x25c>
  402cf6:	80 f9 2f             	cmp    $0x2f,%cl
  402cf9:	77 17                	ja     402d12 <_ZN4HTTP6Client13ConsumeMethodEv+0x122>
  402cfb:	0f b6 c1             	movzbl %cl,%eax
  402cfe:	48 ba 00 00 00 00 04 	movabs $0x930400000000,%rdx
  402d05:	93 00 00
  402d08:	48 0f a3 c2          	bt     %rax,%rdx
  402d0c:	0f 82 3a 01 00 00    	jb     402e4c <_ZN4HTTP6Client13ConsumeMethodEv+0x25c>
  402d12:	8d 41 c6             	lea    -0x3a(%rcx),%eax
  402d15:	3c 07                	cmp    $0x7,%al
  402d17:	0f 82 2f 01 00 00    	jb     402e4c <_ZN4HTTP6Client13ConsumeMethodEv+0x25c>
  402d1d:	8d 41 a5             	lea    -0x5b(%rcx),%eax
  402d20:	3c 24                	cmp    $0x24,%al
  402d22:	0f 87 78 ff ff ff    	ja     402ca0 <_ZN4HTTP6Client13ConsumeMethodEv+0xb0>
  402d28:	0f b6 c0             	movzbl %al,%eax
  402d2b:	48 ba 07 00 00 00 15 	movabs $0x1500000007,%rdx
  402d32:	00 00 00
  402d35:	48 0f a3 c2          	bt     %rax,%rdx
  402d39:	0f 83 61 ff ff ff    	jae    402ca0 <_ZN4HTTP6Client13ConsumeMethodEv+0xb0>
  402d3f:	e9 08 01 00 00       	jmpq   402e4c <_ZN4HTTP6Client13ConsumeMethodEv+0x25c>
  402d44:	66 2e 0f 1f 84 00 00 	nopw   %cs:0x0(%rax,%rax,1)
  402d4b:	00 00 00
  402d4e:	66 90                	xchg   %ax,%ax
  402d50:	4c 8b 64 24 10       	mov    0x10(%rsp),%r12
  402d55:	4c 29 e3             	sub    %r12,%rbx
  402d58:	4c 39 fb             	cmp    %r15,%rbx
  402d5b:	0f 84 ef 02 00 00    	je     403050 <_ZN4HTTP6Client13ConsumeMethodEv+0x460>
  402d61:	48 85 db             	test   %rbx,%rbx
  402d64:	48 89 d8             	mov    %rbx,%rax
  402d67:	ba 01 00 00 00       	mov    $0x1,%edx
  402d6c:	48 0f 44 c2          	cmove  %rdx,%rax
  402d70:	49 89 c5             	mov    %rax,%r13
  402d73:	49 01 dd             	add    %rbx,%r13
  402d76:	4d 0f 48 ef          	cmovs  %r15,%r13
  402d7a:	48 01 d8             	add    %rbx,%rax
  402d7d:	4d 0f 42 ef          	cmovb  %r15,%r13
  402d81:	4d 85 ed             	test   %r13,%r13
  402d84:	74 6c                	je     402df2 <_ZN4HTTP6Client13ConsumeMethodEv+0x202>
  402d86:	4c 89 ef             	mov    %r13,%rdi
  402d89:	e8 22 f4 ff ff       	callq  4021b0 <_Znwm@plt>
  402d8e:	48 89 c5             	mov    %rax,%rbp
  402d91:	0f b6 4c 24 0f       	movzbl 0xf(%rsp),%ecx
  402d96:	4c 8d 34 2b          	lea    (%rbx,%rbp,1),%r14
  402d9a:	88 4c 1d 00          	mov    %cl,0x0(%rbp,%rbx,1)
  402d9e:	48 85 db             	test   %rbx,%rbx
  402da1:	7e 0e                	jle    402db1 <_ZN4HTTP6Client13ConsumeMethodEv+0x1c1>
  402da3:	48 89 ef             	mov    %rbp,%rdi
  402da6:	4c 89 e6             	mov    %r12,%rsi
  402da9:	48 89 da             	mov    %rbx,%rdx
  402dac:	e8 bf f4 ff ff       	callq  402270 <memmove@plt>
  402db1:	49 83 c6 01          	add    $0x1,%r14
  402db5:	4d 85 e4             	test   %r12,%r12
  402db8:	74 08                	je     402dc2 <_ZN4HTTP6Client13ConsumeMethodEv+0x1d2>
  402dba:	4c 89 e7             	mov    %r12,%rdi
  402dbd:	e8 de f3 ff ff       	callq  4021a0 <_ZdlPv@plt>
  402dc2:	48 89 6c 24 10       	mov    %rbp,0x10(%rsp)
  402dc7:	4c 89 74 24 18       	mov    %r14,0x18(%rsp)
  402dcc:	49 01 ed             	add    %rbp,%r13
  402dcf:	48 8d 44 24 20       	lea    0x20(%rsp),%rax
  402dd4:	49 bf ff ff ff ff ff 	movabs $0x7fffffffffffffff,%r15
  402ddb:	ff ff 7f
  402dde:	4c 8d 74 24 18       	lea    0x18(%rsp),%r14
  402de3:	48 8d 6c 24 0f       	lea    0xf(%rsp),%rbp
  402de8:	4c 8b 64 24 50       	mov    0x50(%rsp),%r12
  402ded:	e9 cc fe ff ff       	jmpq   402cbe <_ZN4HTTP6Client13ConsumeMethodEv+0xce>
  402df2:	31 ed                	xor    %ebp,%ebp
  402df4:	4c 8d 34 2b          	lea    (%rbx,%rbp,1),%r14
  402df8:	88 4c 1d 00          	mov    %cl,0x0(%rbp,%rbx,1)
  402dfc:	48 85 db             	test   %rbx,%rbx
  402dff:	7f a2                	jg     402da3 <_ZN4HTTP6Client13ConsumeMethodEv+0x1b3>
  402e01:	eb ae                	jmp    402db1 <_ZN4HTTP6Client13ConsumeMethodEv+0x1c1>
  402e03:	48 8b 5c 24 10       	mov    0x10(%rsp),%rbx
  402e08:	48 8b 6c 24 18       	mov    0x18(%rsp),%rbp
  402e0d:	4c 8d 74 24 38       	lea    0x38(%rsp),%r14
  402e12:	4c 89 74 24 28       	mov    %r14,0x28(%rsp)
  402e17:	48 89 e9             	mov    %rbp,%rcx
  402e1a:	48 29 d9             	sub    %rbx,%rcx
  402e1d:	48 89 4c 24 48       	mov    %rcx,0x48(%rsp)
  402e22:	48 83 f9 0f          	cmp    $0xf,%rcx
  402e26:	76 44                	jbe    402e6c <_ZN4HTTP6Client13ConsumeMethodEv+0x27c>
  402e28:	48 8d 7c 24 28       	lea    0x28(%rsp),%rdi
  402e2d:	48 8d 74 24 48       	lea    0x48(%rsp),%rsi
  402e32:	31 d2                	xor    %edx,%edx
  402e34:	e8 c7 f4 ff ff       	callq  402300 <_ZNSt7__cxx1112basic_stringIcSt11char_traitsIcESaIcEE9_M_createERmm@plt>
  402e39:	48 89 44 24 28       	mov    %rax,0x28(%rsp)
  402e3e:	48 8b 4c 24 48       	mov    0x48(%rsp),%rcx
  402e43:	48 89 4c 24 38       	mov    %rcx,0x38(%rsp)
  402e48:	eb 25                	jmp    402e6f <_ZN4HTTP6Client13ConsumeMethodEv+0x27f>
  402e4a:	31 db                	xor    %ebx,%ebx
  402e4c:	48 8b 7c 24 10       	mov    0x10(%rsp),%rdi
  402e51:	48 85 ff             	test   %rdi,%rdi
  402e54:	74 05                	je     402e5b <_ZN4HTTP6Client13ConsumeMethodEv+0x26b>
  402e56:	e8 45 f3 ff ff       	callq  4021a0 <_ZdlPv@plt>
  402e5b:	89 d8                	mov    %ebx,%eax
  402e5d:	48 83 c4 58          	add    $0x58,%rsp
  402e61:	5b                   	pop    %rbx
  402e62:	41 5c                	pop    %r12
  402e64:	41 5d                	pop    %r13
  402e66:	41 5e                	pop    %r14
  402e68:	41 5f                	pop    %r15
  402e6a:	5d                   	pop    %rbp
  402e6b:	c3                   	retq
  402e6c:	4c 89 f0             	mov    %r14,%rax
  402e6f:	48 39 eb             	cmp    %rbp,%rbx
  402e72:	0f 84 12 01 00 00    	je     402f8a <_ZN4HTTP6Client13ConsumeMethodEv+0x39a>
  402e78:	48 89 e9             	mov    %rbp,%rcx
  402e7b:	48 29 d9             	sub    %rbx,%rcx
  402e7e:	48 83 f9 20          	cmp    $0x20,%rcx
  402e82:	0f 82 de 00 00 00    	jb     402f66 <_ZN4HTTP6Client13ConsumeMethodEv+0x376>
  402e88:	48 39 e8             	cmp    %rbp,%rax
  402e8b:	73 0d                	jae    402e9a <_ZN4HTTP6Client13ConsumeMethodEv+0x2aa>
  402e8d:	48 8d 14 08          	lea    (%rax,%rcx,1),%rdx
  402e91:	48 39 d3             	cmp    %rdx,%rbx
  402e94:	0f 82 cc 00 00 00    	jb     402f66 <_ZN4HTTP6Client13ConsumeMethodEv+0x376>
  402e9a:	49 89 c8             	mov    %rcx,%r8
  402e9d:	49 83 e0 e0          	and    $0xffffffffffffffe0,%r8
  402ea1:	49 8d 70 e0          	lea    -0x20(%r8),%rsi
  402ea5:	48 89 f7             	mov    %rsi,%rdi
  402ea8:	48 c1 ef 05          	shr    $0x5,%rdi
  402eac:	48 83 c7 01          	add    $0x1,%rdi
  402eb0:	89 fa                	mov    %edi,%edx
  402eb2:	83 e2 03             	and    $0x3,%edx
  402eb5:	48 83 fe 60          	cmp    $0x60,%rsi
  402eb9:	73 04                	jae    402ebf <_ZN4HTTP6Client13ConsumeMethodEv+0x2cf>
  402ebb:	31 ff                	xor    %edi,%edi
  402ebd:	eb 69                	jmp    402f28 <_ZN4HTTP6Client13ConsumeMethodEv+0x338>
  402ebf:	48 89 d6             	mov    %rdx,%rsi
  402ec2:	48 29 fe             	sub    %rdi,%rsi
  402ec5:	31 ff                	xor    %edi,%edi
  402ec7:	66 0f 1f 84 00 00 00 	nopw   0x0(%rax,%rax,1)
  402ece:	00 00
  402ed0:	0f 10 04 3b          	movups (%rbx,%rdi,1),%xmm0
  402ed4:	0f 10 4c 3b 10       	movups 0x10(%rbx,%rdi,1),%xmm1
  402ed9:	0f 11 04 38          	movups %xmm0,(%rax,%rdi,1)
  402edd:	0f 11 4c 38 10       	movups %xmm1,0x10(%rax,%rdi,1)
  402ee2:	0f 10 44 3b 20       	movups 0x20(%rbx,%rdi,1),%xmm0
  402ee7:	0f 10 4c 3b 30       	movups 0x30(%rbx,%rdi,1),%xmm1
  402eec:	0f 11 44 38 20       	movups %xmm0,0x20(%rax,%rdi,1)
  402ef1:	0f 11 4c 38 30       	movups %xmm1,0x30(%rax,%rdi,1)
  402ef6:	0f 10 44 3b 40       	movups 0x40(%rbx,%rdi,1),%xmm0
  402efb:	0f 10 4c 3b 50       	movups 0x50(%rbx,%rdi,1),%xmm1
  402f00:	0f 11 44 38 40       	movups %xmm0,0x40(%rax,%rdi,1)
  402f05:	0f 11 4c 38 50       	movups %xmm1,0x50(%rax,%rdi,1)
  402f0a:	0f 10 44 3b 60       	movups 0x60(%rbx,%rdi,1),%xmm0
  402f0f:	0f 10 4c 3b 70       	movups 0x70(%rbx,%rdi,1),%xmm1
  402f14:	0f 11 44 38 60       	movups %xmm0,0x60(%rax,%rdi,1)
  402f19:	0f 11 4c 38 70       	movups %xmm1,0x70(%rax,%rdi,1)
  402f1e:	48 83 ef 80          	sub    $0xffffffffffffff80,%rdi
  402f22:	48 83 c6 04          	add    $0x4,%rsi
  402f26:	75 a8                	jne    402ed0 <_ZN4HTTP6Client13ConsumeMethodEv+0x2e0>
  402f28:	48 85 d2             	test   %rdx,%rdx
  402f2b:	74 2e                	je     402f5b <_ZN4HTTP6Client13ConsumeMethodEv+0x36b>
  402f2d:	48 83 c7 10          	add    $0x10,%rdi
  402f31:	48 f7 da             	neg    %rdx
  402f34:	66 2e 0f 1f 84 00 00 	nopw   %cs:0x0(%rax,%rax,1)
  402f3b:	00 00 00
  402f3e:	66 90                	xchg   %ax,%ax
  402f40:	0f 10 44 3b f0       	movups -0x10(%rbx,%rdi,1),%xmm0
  402f45:	0f 10 0c 3b          	movups (%rbx,%rdi,1),%xmm1
  402f49:	0f 11 44 38 f0       	movups %xmm0,-0x10(%rax,%rdi,1)
  402f4e:	0f 11 0c 38          	movups %xmm1,(%rax,%rdi,1)
  402f52:	48 83 c7 20          	add    $0x20,%rdi
  402f56:	48 ff c2             	inc    %rdx
  402f59:	75 e5                	jne    402f40 <_ZN4HTTP6Client13ConsumeMethodEv+0x350>
  402f5b:	4c 39 c1             	cmp    %r8,%rcx
  402f5e:	74 20                	je     402f80 <_ZN4HTTP6Client13ConsumeMethodEv+0x390>
  402f60:	4c 01 c0             	add    %r8,%rax
  402f63:	4c 01 c3             	add    %r8,%rbx
  402f66:	48 29 dd             	sub    %rbx,%rbp
  402f69:	31 c9                	xor    %ecx,%ecx
  402f6b:	0f 1f 44 00 00       	nopl   0x0(%rax,%rax,1)
  402f70:	0f b6 14 0b          	movzbl (%rbx,%rcx,1),%edx
  402f74:	88 14 08             	mov    %dl,(%rax,%rcx,1)
  402f77:	48 83 c1 01          	add    $0x1,%rcx
  402f7b:	48 39 cd             	cmp    %rcx,%rbp
  402f7e:	75 f0                	jne    402f70 <_ZN4HTTP6Client13ConsumeMethodEv+0x380>
  402f80:	48 8b 4c 24 48       	mov    0x48(%rsp),%rcx
  402f85:	48 8b 44 24 28       	mov    0x28(%rsp),%rax
  402f8a:	48 89 4c 24 30       	mov    %rcx,0x30(%rsp)
  402f8f:	c6 04 08 00          	movb   $0x0,(%rax,%rcx,1)
  402f93:	48 8b 4c 24 28       	mov    0x28(%rsp),%rcx
  402f98:	4c 39 f1             	cmp    %r14,%rcx
  402f9b:	74 16                	je     402fb3 <_ZN4HTTP6Client13ConsumeMethodEv+0x3c3>
  402f9d:	49 8d 54 24 18       	lea    0x18(%r12),%rdx
  402fa2:	49 8b 44 24 08       	mov    0x8(%r12),%rax
  402fa7:	48 39 d0             	cmp    %rdx,%rax
  402faa:	74 24                	je     402fd0 <_ZN4HTTP6Client13ConsumeMethodEv+0x3e0>
  402fac:	49 8b 54 24 18       	mov    0x18(%r12),%rdx
  402fb1:	eb 1f                	jmp    402fd2 <_ZN4HTTP6Client13ConsumeMethodEv+0x3e2>
  402fb3:	48 8b 54 24 30       	mov    0x30(%rsp),%rdx
  402fb8:	48 85 d2             	test   %rdx,%rdx
  402fbb:	74 48                	je     403005 <_ZN4HTTP6Client13ConsumeMethodEv+0x415>
  402fbd:	49 8b 7c 24 08       	mov    0x8(%r12),%rdi
  402fc2:	48 83 fa 01          	cmp    $0x1,%rdx
  402fc6:	75 35                	jne    402ffd <_ZN4HTTP6Client13ConsumeMethodEv+0x40d>
  402fc8:	8a 44 24 38          	mov    0x38(%rsp),%al
  402fcc:	88 07                	mov    %al,(%rdi)
  402fce:	eb 35                	jmp    403005 <_ZN4HTTP6Client13ConsumeMethodEv+0x415>
  402fd0:	31 c0                	xor    %eax,%eax
  402fd2:	49 89 4c 24 08       	mov    %rcx,0x8(%r12)
  402fd7:	0f 10 44 24 30       	movups 0x30(%rsp),%xmm0
  402fdc:	41 0f 11 44 24 10    	movups %xmm0,0x10(%r12)
  402fe2:	48 85 c0             	test   %rax,%rax
  402fe5:	74 0c                	je     402ff3 <_ZN4HTTP6Client13ConsumeMethodEv+0x403>
  402fe7:	48 89 44 24 28       	mov    %rax,0x28(%rsp)
  402fec:	48 89 54 24 38       	mov    %rdx,0x38(%rsp)
  402ff1:	eb 2a                	jmp    40301d <_ZN4HTTP6Client13ConsumeMethodEv+0x42d>
  402ff3:	4c 89 74 24 28       	mov    %r14,0x28(%rsp)
  402ff8:	4c 89 f0             	mov    %r14,%rax
  402ffb:	eb 20                	jmp    40301d <_ZN4HTTP6Client13ConsumeMethodEv+0x42d>
  402ffd:	4c 89 f6             	mov    %r14,%rsi
  403000:	e8 6b f1 ff ff       	callq  402170 <memcpy@plt>
  403005:	48 8b 44 24 30       	mov    0x30(%rsp),%rax
  40300a:	49 89 44 24 10       	mov    %rax,0x10(%r12)
  40300f:	49 8b 4c 24 08       	mov    0x8(%r12),%rcx
  403014:	c6 04 01 00          	movb   $0x0,(%rcx,%rax,1)
  403018:	48 8b 44 24 28       	mov    0x28(%rsp),%rax
  40301d:	48 c7 44 24 30 00 00 	movq   $0x0,0x30(%rsp)
  403024:	00 00
  403026:	c6 00 00             	movb   $0x0,(%rax)
  403029:	48 8b 7c 24 28       	mov    0x28(%rsp),%rdi
  40302e:	4c 39 f7             	cmp    %r14,%rdi
  403031:	74 05                	je     403038 <_ZN4HTTP6Client13ConsumeMethodEv+0x448>
  403033:	e8 68 f1 ff ff       	callq  4021a0 <_ZdlPv@plt>
  403038:	bb 07 00 00 00       	mov    $0x7,%ebx
  40303d:	48 8b 7c 24 10       	mov    0x10(%rsp),%rdi
  403042:	48 85 ff             	test   %rdi,%rdi
  403045:	0f 85 0b fe ff ff    	jne    402e56 <_ZN4HTTP6Client13ConsumeMethodEv+0x266>
  40304b:	e9 0b fe ff ff       	jmpq   402e5b <_ZN4HTTP6Client13ConsumeMethodEv+0x26b>
  403050:	bf ba 60 40 00       	mov    $0x4060ba,%edi
  403055:	e8 a6 f0 ff ff       	callq  402100 <_ZSt20__throw_length_errorPKc@plt>
  40305a:	eb 04                	jmp    403060 <_ZN4HTTP6Client13ConsumeMethodEv+0x470>
  40305c:	eb 02                	jmp    403060 <_ZN4HTTP6Client13ConsumeMethodEv+0x470>
  40305e:	eb 00                	jmp    403060 <_ZN4HTTP6Client13ConsumeMethodEv+0x470>
  403060:	48 89 c3             	mov    %rax,%rbx
  403063:	48 8d 7c 24 10       	lea    0x10(%rsp),%rdi
  403068:	e8 33 0b 00 00       	callq  403ba0 <_ZNSt6vectorIcSaIcEED2Ev>
  40306d:	48 89 df             	mov    %rbx,%rdi
  403070:	e8 2b f9 ff ff       	callq  4029a0 <__clang_call_terminate>
  403075:	66 2e 0f 1f 84 00 00 	nopw   %cs:0x0(%rax,%rax,1)
  40307c:	00 00 00
  40307f:	90                   	nop

0000000000403080 <_ZN4HTTP6Client11ConsumePathEv>:
  403080:	55                   	push   %rbp
  403081:	41 57                	push   %r15
  403083:	41 56                	push   %r14
  403085:	41 55                	push   %r13
  403087:	41 54                	push   %r12
  403089:	53                   	push   %rbx
  40308a:	48 83 ec 58          	sub    $0x58,%rsp
  40308e:	49 89 fc             	mov    %rdi,%r12
  403091:	0f 57 c0             	xorps  %xmm0,%xmm0
  403094:	0f 29 44 24 10       	movaps %xmm0,0x10(%rsp)
  403099:	48 c7 44 24 20 00 00 	movq   $0x0,0x20(%rsp)
  4030a0:	00 00
  4030a2:	c6 44 24 0f 00       	movb   $0x0,0xf(%rsp)
  4030a7:	48 8b 3f             	mov    (%rdi),%rdi
  4030aa:	48 8d 74 24 0f       	lea    0xf(%rsp),%rsi
  4030af:	e8 2c f9 ff ff       	callq  4029e0 <_ZN10Connection8ReadCharEPc>
  4030b4:	bb 01 00 00 00       	mov    $0x1,%ebx
  4030b9:	84 c0                	test   %al,%al
  4030bb:	0f 84 70 01 00 00    	je     403231 <_ZN4HTTP6Client11ConsumePathEv+0x1b1>
  4030c1:	4c 8d 7c 24 0f       	lea    0xf(%rsp),%r15
  4030c6:	4c 89 64 24 50       	mov    %r12,0x50(%rsp)
  4030cb:	eb 30                	jmp    4030fd <_ZN4HTTP6Client11ConsumePathEv+0x7d>
  4030cd:	0f 1f 00             	nopl   (%rax)
  4030d0:	88 45 00             	mov    %al,0x0(%rbp)
  4030d3:	48 8b 5c 24 18       	mov    0x18(%rsp),%rbx
  4030d8:	48 83 c3 01          	add    $0x1,%rbx
  4030dc:	48 8d 44 24 18       	lea    0x18(%rsp),%rax
  4030e1:	48 89 18             	mov    %rbx,(%rax)
  4030e4:	c6 44 24 0f 00       	movb   $0x0,0xf(%rsp)
  4030e9:	49 8b 3c 24          	mov    (%r12),%rdi
  4030ed:	4c 89 fe             	mov    %r15,%rsi
  4030f0:	e8 eb f8 ff ff       	callq  4029e0 <_ZN10Connection8ReadCharEPc>
  4030f5:	84 c0                	test   %al,%al
  4030f7:	0f 84 2f 01 00 00    	je     40322c <_ZN4HTTP6Client11ConsumePathEv+0x1ac>
  4030fd:	0f b6 44 24 0f       	movzbl 0xf(%rsp),%eax
  403102:	3c 20                	cmp    $0x20,%al
  403104:	0f 84 c2 00 00 00    	je     4031cc <_ZN4HTTP6Client11ConsumePathEv+0x14c>
  40310a:	8d 48 e0             	lea    -0x20(%rax),%ecx
  40310d:	80 f9 5f             	cmp    $0x5f,%cl
  403110:	0f 83 05 01 00 00    	jae    40321b <_ZN4HTTP6Client11ConsumePathEv+0x19b>
  403116:	48 8b 6c 24 18       	mov    0x18(%rsp),%rbp
  40311b:	48 3b 6c 24 20       	cmp    0x20(%rsp),%rbp
  403120:	75 ae                	jne    4030d0 <_ZN4HTTP6Client11ConsumePathEv+0x50>
  403122:	4c 8b 6c 24 10       	mov    0x10(%rsp),%r13
  403127:	4c 29 ed             	sub    %r13,%rbp
  40312a:	48 be ff ff ff ff ff 	movabs $0x7fffffffffffffff,%rsi
  403131:	ff ff 7f
  403134:	48 39 f5             	cmp    %rsi,%rbp
  403137:	0f 84 f3 02 00 00    	je     403430 <_ZN4HTTP6Client11ConsumePathEv+0x3b0>
  40313d:	48 85 ed             	test   %rbp,%rbp
  403140:	48 89 e9             	mov    %rbp,%rcx
  403143:	ba 01 00 00 00       	mov    $0x1,%edx
  403148:	48 0f 44 ca          	cmove  %rdx,%rcx
  40314c:	48 89 cb             	mov    %rcx,%rbx
  40314f:	48 01 eb             	add    %rbp,%rbx
  403152:	48 0f 48 de          	cmovs  %rsi,%rbx
  403156:	48 01 e9             	add    %rbp,%rcx
  403159:	48 0f 42 de          	cmovb  %rsi,%rbx
  40315d:	48 85 db             	test   %rbx,%rbx
  403160:	74 58                	je     4031ba <_ZN4HTTP6Client11ConsumePathEv+0x13a>
  403162:	48 89 df             	mov    %rbx,%rdi
  403165:	e8 46 f0 ff ff       	callq  4021b0 <_Znwm@plt>
  40316a:	49 89 c6             	mov    %rax,%r14
  40316d:	0f b6 44 24 0f       	movzbl 0xf(%rsp),%eax
  403172:	4d 8d 24 2e          	lea    (%r14,%rbp,1),%r12
  403176:	41 88 04 2e          	mov    %al,(%r14,%rbp,1)
  40317a:	48 85 ed             	test   %rbp,%rbp
  40317d:	7e 0e                	jle    40318d <_ZN4HTTP6Client11ConsumePathEv+0x10d>
  40317f:	4c 89 f7             	mov    %r14,%rdi
  403182:	4c 89 ee             	mov    %r13,%rsi
  403185:	48 89 ea             	mov    %rbp,%rdx
  403188:	e8 e3 f0 ff ff       	callq  402270 <memmove@plt>
  40318d:	49 83 c4 01          	add    $0x1,%r12
  403191:	4d 85 ed             	test   %r13,%r13
  403194:	74 08                	je     40319e <_ZN4HTTP6Client11ConsumePathEv+0x11e>
  403196:	4c 89 ef             	mov    %r13,%rdi
  403199:	e8 02 f0 ff ff       	callq  4021a0 <_ZdlPv@plt>
  40319e:	4c 89 74 24 10       	mov    %r14,0x10(%rsp)
  4031a3:	4c 89 64 24 18       	mov    %r12,0x18(%rsp)
  4031a8:	4c 01 f3             	add    %r14,%rbx
  4031ab:	48 8d 44 24 20       	lea    0x20(%rsp),%rax
  4031b0:	4c 8b 64 24 50       	mov    0x50(%rsp),%r12
  4031b5:	e9 27 ff ff ff       	jmpq   4030e1 <_ZN4HTTP6Client11ConsumePathEv+0x61>
  4031ba:	45 31 f6             	xor    %r14d,%r14d
  4031bd:	4d 8d 24 2e          	lea    (%r14,%rbp,1),%r12
  4031c1:	41 88 04 2e          	mov    %al,(%r14,%rbp,1)
  4031c5:	48 85 ed             	test   %rbp,%rbp
  4031c8:	7f b5                	jg     40317f <_ZN4HTTP6Client11ConsumePathEv+0xff>
  4031ca:	eb c1                	jmp    40318d <_ZN4HTTP6Client11ConsumePathEv+0x10d>
  4031cc:	48 8b 5c 24 10       	mov    0x10(%rsp),%rbx
  4031d1:	48 8b 6c 24 18       	mov    0x18(%rsp),%rbp
  4031d6:	4c 8d 74 24 38       	lea    0x38(%rsp),%r14
  4031db:	4c 89 74 24 28       	mov    %r14,0x28(%rsp)
  4031e0:	48 89 e9             	mov    %rbp,%rcx
  4031e3:	48 29 d9             	sub    %rbx,%rcx
  4031e6:	48 89 4c 24 48       	mov    %rcx,0x48(%rsp)
  4031eb:	48 83 f9 0f          	cmp    $0xf,%rcx
  4031ef:	76 60                	jbe    403251 <_ZN4HTTP6Client11ConsumePathEv+0x1d1>
  4031f1:	48 8d 7c 24 28       	lea    0x28(%rsp),%rdi
  4031f6:	48 8d 74 24 48       	lea    0x48(%rsp),%rsi
  4031fb:	31 d2                	xor    %edx,%edx
  4031fd:	e8 fe f0 ff ff       	callq  402300 <_ZNSt7__cxx1112basic_stringIcSt11char_traitsIcESaIcEE9_M_createERmm@plt>
  403202:	48 89 44 24 28       	mov    %rax,0x28(%rsp)
  403207:	48 8b 4c 24 48       	mov    0x48(%rsp),%rcx
  40320c:	48 89 4c 24 38       	mov    %rcx,0x38(%rsp)
  403211:	48 39 eb             	cmp    %rbp,%rbx
  403214:	75 47                	jne    40325d <_ZN4HTTP6Client11ConsumePathEv+0x1dd>
  403216:	e9 4f 01 00 00       	jmpq   40336a <_ZN4HTTP6Client11ConsumePathEv+0x2ea>
  40321b:	bb 05 00 00 00       	mov    $0x5,%ebx
  403220:	48 8b 7c 24 10       	mov    0x10(%rsp),%rdi
  403225:	48 85 ff             	test   %rdi,%rdi
  403228:	75 11                	jne    40323b <_ZN4HTTP6Client11ConsumePathEv+0x1bb>
  40322a:	eb 14                	jmp    403240 <_ZN4HTTP6Client11ConsumePathEv+0x1c0>
  40322c:	bb 01 00 00 00       	mov    $0x1,%ebx
  403231:	48 8b 7c 24 10       	mov    0x10(%rsp),%rdi
  403236:	48 85 ff             	test   %rdi,%rdi
  403239:	74 05                	je     403240 <_ZN4HTTP6Client11ConsumePathEv+0x1c0>
  40323b:	e8 60 ef ff ff       	callq  4021a0 <_ZdlPv@plt>
  403240:	89 d8                	mov    %ebx,%eax
  403242:	48 83 c4 58          	add    $0x58,%rsp
  403246:	5b                   	pop    %rbx
  403247:	41 5c                	pop    %r12
  403249:	41 5d                	pop    %r13
  40324b:	41 5e                	pop    %r14
  40324d:	41 5f                	pop    %r15
  40324f:	5d                   	pop    %rbp
  403250:	c3                   	retq
  403251:	4c 89 f0             	mov    %r14,%rax
  403254:	48 39 eb             	cmp    %rbp,%rbx
  403257:	0f 84 0d 01 00 00    	je     40336a <_ZN4HTTP6Client11ConsumePathEv+0x2ea>
  40325d:	48 89 e9             	mov    %rbp,%rcx
  403260:	48 29 d9             	sub    %rbx,%rcx
  403263:	48 83 f9 20          	cmp    $0x20,%rcx
  403267:	0f 82 d9 00 00 00    	jb     403346 <_ZN4HTTP6Client11ConsumePathEv+0x2c6>
  40326d:	48 39 e8             	cmp    %rbp,%rax
  403270:	73 0d                	jae    40327f <_ZN4HTTP6Client11ConsumePathEv+0x1ff>
  403272:	48 8d 14 08          	lea    (%rax,%rcx,1),%rdx
  403276:	48 39 d3             	cmp    %rdx,%rbx
  403279:	0f 82 c7 00 00 00    	jb     403346 <_ZN4HTTP6Client11ConsumePathEv+0x2c6>
  40327f:	49 89 c8             	mov    %rcx,%r8
  403282:	49 83 e0 e0          	and    $0xffffffffffffffe0,%r8
  403286:	49 8d 70 e0          	lea    -0x20(%r8),%rsi
  40328a:	48 89 f7             	mov    %rsi,%rdi
  40328d:	48 c1 ef 05          	shr    $0x5,%rdi
  403291:	48 83 c7 01          	add    $0x1,%rdi
  403295:	89 fa                	mov    %edi,%edx
  403297:	83 e2 03             	and    $0x3,%edx
  40329a:	48 83 fe 60          	cmp    $0x60,%rsi
  40329e:	73 04                	jae    4032a4 <_ZN4HTTP6Client11ConsumePathEv+0x224>
  4032a0:	31 ff                	xor    %edi,%edi
  4032a2:	eb 64                	jmp    403308 <_ZN4HTTP6Client11ConsumePathEv+0x288>
  4032a4:	48 89 d6             	mov    %rdx,%rsi
  4032a7:	48 29 fe             	sub    %rdi,%rsi
  4032aa:	31 ff                	xor    %edi,%edi
  4032ac:	0f 1f 40 00          	nopl   0x0(%rax)
  4032b0:	0f 10 04 3b          	movups (%rbx,%rdi,1),%xmm0
  4032b4:	0f 10 4c 3b 10       	movups 0x10(%rbx,%rdi,1),%xmm1
  4032b9:	0f 11 04 38          	movups %xmm0,(%rax,%rdi,1)
  4032bd:	0f 11 4c 38 10       	movups %xmm1,0x10(%rax,%rdi,1)
  4032c2:	0f 10 44 3b 20       	movups 0x20(%rbx,%rdi,1),%xmm0
  4032c7:	0f 10 4c 3b 30       	movups 0x30(%rbx,%rdi,1),%xmm1
  4032cc:	0f 11 44 38 20       	movups %xmm0,0x20(%rax,%rdi,1)
  4032d1:	0f 11 4c 38 30       	movups %xmm1,0x30(%rax,%rdi,1)
  4032d6:	0f 10 44 3b 40       	movups 0x40(%rbx,%rdi,1),%xmm0
  4032db:	0f 10 4c 3b 50       	movups 0x50(%rbx,%rdi,1),%xmm1
  4032e0:	0f 11 44 38 40       	movups %xmm0,0x40(%rax,%rdi,1)
  4032e5:	0f 11 4c 38 50       	movups %xmm1,0x50(%rax,%rdi,1)
  4032ea:	0f 10 44 3b 60       	movups 0x60(%rbx,%rdi,1),%xmm0
  4032ef:	0f 10 4c 3b 70       	movups 0x70(%rbx,%rdi,1),%xmm1
  4032f4:	0f 11 44 38 60       	movups %xmm0,0x60(%rax,%rdi,1)
  4032f9:	0f 11 4c 38 70       	movups %xmm1,0x70(%rax,%rdi,1)
  4032fe:	48 83 ef 80          	sub    $0xffffffffffffff80,%rdi
  403302:	48 83 c6 04          	add    $0x4,%rsi
  403306:	75 a8                	jne    4032b0 <_ZN4HTTP6Client11ConsumePathEv+0x230>
  403308:	48 85 d2             	test   %rdx,%rdx
  40330b:	74 2e                	je     40333b <_ZN4HTTP6Client11ConsumePathEv+0x2bb>
  40330d:	48 83 c7 10          	add    $0x10,%rdi
  403311:	48 f7 da             	neg    %rdx
  403314:	66 2e 0f 1f 84 00 00 	nopw   %cs:0x0(%rax,%rax,1)
  40331b:	00 00 00
  40331e:	66 90                	xchg   %ax,%ax
  403320:	0f 10 44 3b f0       	movups -0x10(%rbx,%rdi,1),%xmm0
  403325:	0f 10 0c 3b          	movups (%rbx,%rdi,1),%xmm1
  403329:	0f 11 44 38 f0       	movups %xmm0,-0x10(%rax,%rdi,1)
  40332e:	0f 11 0c 38          	movups %xmm1,(%rax,%rdi,1)
  403332:	48 83 c7 20          	add    $0x20,%rdi
  403336:	48 ff c2             	inc    %rdx
  403339:	75 e5                	jne    403320 <_ZN4HTTP6Client11ConsumePathEv+0x2a0>
  40333b:	4c 39 c1             	cmp    %r8,%rcx
  40333e:	74 20                	je     403360 <_ZN4HTTP6Client11ConsumePathEv+0x2e0>
  403340:	4c 01 c0             	add    %r8,%rax
  403343:	4c 01 c3             	add    %r8,%rbx
  403346:	48 29 dd             	sub    %rbx,%rbp
  403349:	31 c9                	xor    %ecx,%ecx
  40334b:	0f 1f 44 00 00       	nopl   0x0(%rax,%rax,1)
  403350:	0f b6 14 0b          	movzbl (%rbx,%rcx,1),%edx
  403354:	88 14 08             	mov    %dl,(%rax,%rcx,1)
  403357:	48 83 c1 01          	add    $0x1,%rcx
  40335b:	48 39 cd             	cmp    %rcx,%rbp
  40335e:	75 f0                	jne    403350 <_ZN4HTTP6Client11ConsumePathEv+0x2d0>
  403360:	48 8b 4c 24 48       	mov    0x48(%rsp),%rcx
  403365:	48 8b 44 24 28       	mov    0x28(%rsp),%rax
  40336a:	48 89 4c 24 30       	mov    %rcx,0x30(%rsp)
  40336f:	c6 04 08 00          	movb   $0x0,(%rax,%rcx,1)
  403373:	48 8b 4c 24 28       	mov    0x28(%rsp),%rcx
  403378:	4c 39 f1             	cmp    %r14,%rcx
  40337b:	74 16                	je     403393 <_ZN4HTTP6Client11ConsumePathEv+0x313>
  40337d:	49 8d 54 24 38       	lea    0x38(%r12),%rdx
  403382:	49 8b 44 24 28       	mov    0x28(%r12),%rax
  403387:	48 39 d0             	cmp    %rdx,%rax
  40338a:	74 24                	je     4033b0 <_ZN4HTTP6Client11ConsumePathEv+0x330>
  40338c:	49 8b 54 24 38       	mov    0x38(%r12),%rdx
  403391:	eb 1f                	jmp    4033b2 <_ZN4HTTP6Client11ConsumePathEv+0x332>
  403393:	48 8b 54 24 30       	mov    0x30(%rsp),%rdx
  403398:	48 85 d2             	test   %rdx,%rdx
  40339b:	74 48                	je     4033e5 <_ZN4HTTP6Client11ConsumePathEv+0x365>
  40339d:	49 8b 7c 24 28       	mov    0x28(%r12),%rdi
  4033a2:	48 83 fa 01          	cmp    $0x1,%rdx
  4033a6:	75 35                	jne    4033dd <_ZN4HTTP6Client11ConsumePathEv+0x35d>
  4033a8:	8a 44 24 38          	mov    0x38(%rsp),%al
  4033ac:	88 07                	mov    %al,(%rdi)
  4033ae:	eb 35                	jmp    4033e5 <_ZN4HTTP6Client11ConsumePathEv+0x365>
  4033b0:	31 c0                	xor    %eax,%eax
  4033b2:	49 89 4c 24 28       	mov    %rcx,0x28(%r12)
  4033b7:	0f 10 44 24 30       	movups 0x30(%rsp),%xmm0
  4033bc:	41 0f 11 44 24 30    	movups %xmm0,0x30(%r12)
  4033c2:	48 85 c0             	test   %rax,%rax
  4033c5:	74 0c                	je     4033d3 <_ZN4HTTP6Client11ConsumePathEv+0x353>
  4033c7:	48 89 44 24 28       	mov    %rax,0x28(%rsp)
  4033cc:	48 89 54 24 38       	mov    %rdx,0x38(%rsp)
  4033d1:	eb 2a                	jmp    4033fd <_ZN4HTTP6Client11ConsumePathEv+0x37d>
  4033d3:	4c 89 74 24 28       	mov    %r14,0x28(%rsp)
  4033d8:	4c 89 f0             	mov    %r14,%rax
  4033db:	eb 20                	jmp    4033fd <_ZN4HTTP6Client11ConsumePathEv+0x37d>
  4033dd:	4c 89 f6             	mov    %r14,%rsi
  4033e0:	e8 8b ed ff ff       	callq  402170 <memcpy@plt>
  4033e5:	48 8b 44 24 30       	mov    0x30(%rsp),%rax
  4033ea:	49 89 44 24 30       	mov    %rax,0x30(%r12)
  4033ef:	49 8b 4c 24 28       	mov    0x28(%r12),%rcx
  4033f4:	c6 04 01 00          	movb   $0x0,(%rcx,%rax,1)
  4033f8:	48 8b 44 24 28       	mov    0x28(%rsp),%rax
  4033fd:	48 c7 44 24 30 00 00 	movq   $0x0,0x30(%rsp)
  403404:	00 00
  403406:	c6 00 00             	movb   $0x0,(%rax)
  403409:	48 8b 7c 24 28       	mov    0x28(%rsp),%rdi
  40340e:	4c 39 f7             	cmp    %r14,%rdi
  403411:	74 05                	je     403418 <_ZN4HTTP6Client11ConsumePathEv+0x398>
  403413:	e8 88 ed ff ff       	callq  4021a0 <_ZdlPv@plt>
  403418:	bb 07 00 00 00       	mov    $0x7,%ebx
  40341d:	48 8b 7c 24 10       	mov    0x10(%rsp),%rdi
  403422:	48 85 ff             	test   %rdi,%rdi
  403425:	0f 85 10 fe ff ff    	jne    40323b <_ZN4HTTP6Client11ConsumePathEv+0x1bb>
  40342b:	e9 10 fe ff ff       	jmpq   403240 <_ZN4HTTP6Client11ConsumePathEv+0x1c0>
  403430:	bf ba 60 40 00       	mov    $0x4060ba,%edi
  403435:	e8 c6 ec ff ff       	callq  402100 <_ZSt20__throw_length_errorPKc@plt>
  40343a:	eb 02                	jmp    40343e <_ZN4HTTP6Client11ConsumePathEv+0x3be>
  40343c:	eb 00                	jmp    40343e <_ZN4HTTP6Client11ConsumePathEv+0x3be>
  40343e:	48 89 c3             	mov    %rax,%rbx
  403441:	48 8d 7c 24 10       	lea    0x10(%rsp),%rdi
  403446:	e8 55 07 00 00       	callq  403ba0 <_ZNSt6vectorIcSaIcEED2Ev>
  40344b:	48 89 df             	mov    %rbx,%rdi
  40344e:	e8 4d f5 ff ff       	callq  4029a0 <__clang_call_terminate>
  403453:	66 2e 0f 1f 84 00 00 	nopw   %cs:0x0(%rax,%rax,1)
  40345a:	00 00 00
  40345d:	0f 1f 00             	nopl   (%rax)

0000000000403460 <_ZN4HTTP6Client14ConsumeVersionEv>:
  403460:	55                   	push   %rbp
  403461:	53                   	push   %rbx
  403462:	50                   	push   %rax
  403463:	48 89 fb             	mov    %rdi,%rbx
  403466:	48 8b 3f             	mov    (%rdi),%rdi
  403469:	48 89 e6             	mov    %rsp,%rsi
  40346c:	e8 6f f5 ff ff       	callq  4029e0 <_ZN10Connection8ReadCharEPc>
  403471:	84 c0                	test   %al,%al
  403473:	0f 84 d8 00 00 00    	je     403551 <_ZN4HTTP6Client14ConsumeVersionEv+0xf1>
  403479:	bd 06 00 00 00       	mov    $0x6,%ebp
  40347e:	80 3c 24 48          	cmpb   $0x48,(%rsp)
  403482:	0f 85 ce 00 00 00    	jne    403556 <_ZN4HTTP6Client14ConsumeVersionEv+0xf6>
  403488:	48 8b 3b             	mov    (%rbx),%rdi
  40348b:	48 8d 74 24 01       	lea    0x1(%rsp),%rsi
  403490:	e8 4b f5 ff ff       	callq  4029e0 <_ZN10Connection8ReadCharEPc>
  403495:	84 c0                	test   %al,%al
  403497:	0f 84 b4 00 00 00    	je     403551 <_ZN4HTTP6Client14ConsumeVersionEv+0xf1>
  40349d:	80 7c 24 01 54       	cmpb   $0x54,0x1(%rsp)
  4034a2:	0f 85 ae 00 00 00    	jne    403556 <_ZN4HTTP6Client14ConsumeVersionEv+0xf6>
  4034a8:	48 8b 3b             	mov    (%rbx),%rdi
  4034ab:	48 8d 74 24 02       	lea    0x2(%rsp),%rsi
  4034b0:	e8 2b f5 ff ff       	callq  4029e0 <_ZN10Connection8ReadCharEPc>
  4034b5:	84 c0                	test   %al,%al
  4034b7:	0f 84 94 00 00 00    	je     403551 <_ZN4HTTP6Client14ConsumeVersionEv+0xf1>
  4034bd:	80 7c 24 02 54       	cmpb   $0x54,0x2(%rsp)
  4034c2:	0f 85 8e 00 00 00    	jne    403556 <_ZN4HTTP6Client14ConsumeVersionEv+0xf6>
  4034c8:	48 8b 3b             	mov    (%rbx),%rdi
  4034cb:	48 8d 74 24 03       	lea    0x3(%rsp),%rsi
  4034d0:	e8 0b f5 ff ff       	callq  4029e0 <_ZN10Connection8ReadCharEPc>
  4034d5:	84 c0                	test   %al,%al
  4034d7:	74 78                	je     403551 <_ZN4HTTP6Client14ConsumeVersionEv+0xf1>
  4034d9:	80 7c 24 03 50       	cmpb   $0x50,0x3(%rsp)
  4034de:	75 76                	jne    403556 <_ZN4HTTP6Client14ConsumeVersionEv+0xf6>
  4034e0:	48 8b 3b             	mov    (%rbx),%rdi
  4034e3:	48 8d 74 24 04       	lea    0x4(%rsp),%rsi
  4034e8:	e8 f3 f4 ff ff       	callq  4029e0 <_ZN10Connection8ReadCharEPc>
  4034ed:	84 c0                	test   %al,%al
  4034ef:	74 60                	je     403551 <_ZN4HTTP6Client14ConsumeVersionEv+0xf1>
  4034f1:	80 7c 24 04 2f       	cmpb   $0x2f,0x4(%rsp)
  4034f6:	75 5e                	jne    403556 <_ZN4HTTP6Client14ConsumeVersionEv+0xf6>
  4034f8:	48 8b 3b             	mov    (%rbx),%rdi
  4034fb:	48 8d 74 24 05       	lea    0x5(%rsp),%rsi
  403500:	e8 db f4 ff ff       	callq  4029e0 <_ZN10Connection8ReadCharEPc>
  403505:	84 c0                	test   %al,%al
  403507:	74 48                	je     403551 <_ZN4HTTP6Client14ConsumeVersionEv+0xf1>
  403509:	80 7c 24 05 31       	cmpb   $0x31,0x5(%rsp)
  40350e:	75 46                	jne    403556 <_ZN4HTTP6Client14ConsumeVersionEv+0xf6>
  403510:	48 8b 3b             	mov    (%rbx),%rdi
  403513:	48 8d 74 24 06       	lea    0x6(%rsp),%rsi
  403518:	e8 c3 f4 ff ff       	callq  4029e0 <_ZN10Connection8ReadCharEPc>
  40351d:	84 c0                	test   %al,%al
  40351f:	74 30                	je     403551 <_ZN4HTTP6Client14ConsumeVersionEv+0xf1>
  403521:	80 7c 24 06 2e       	cmpb   $0x2e,0x6(%rsp)
  403526:	75 2e                	jne    403556 <_ZN4HTTP6Client14ConsumeVersionEv+0xf6>
  403528:	48 8b 3b             	mov    (%rbx),%rdi
  40352b:	48 8d 74 24 07       	lea    0x7(%rsp),%rsi
  403530:	e8 ab f4 ff ff       	callq  4029e0 <_ZN10Connection8ReadCharEPc>
  403535:	bd 02 00 00 00       	mov    $0x2,%ebp
  40353a:	84 c0                	test   %al,%al
  40353c:	74 18                	je     403556 <_ZN4HTTP6Client14ConsumeVersionEv+0xf6>
  40353e:	8a 44 24 07          	mov    0x7(%rsp),%al
  403542:	04 d0                	add    $0xd0,%al
  403544:	31 ed                	xor    %ebp,%ebp
  403546:	3c 0a                	cmp    $0xa,%al
  403548:	40 0f 92 c5          	setb   %bpl
  40354c:	83 cd 06             	or     $0x6,%ebp
  40354f:	eb 05                	jmp    403556 <_ZN4HTTP6Client14ConsumeVersionEv+0xf6>
  403551:	bd 02 00 00 00       	mov    $0x2,%ebp
  403556:	89 e8                	mov    %ebp,%eax
  403558:	48 83 c4 08          	add    $0x8,%rsp
  40355c:	5b                   	pop    %rbx
  40355d:	5d                   	pop    %rbp
  40355e:	c3                   	retq
  40355f:	90                   	nop

0000000000403560 <_ZN4HTTP6Client18RunMessageExchangeEv>:
  403560:	53                   	push   %rbx
  403561:	48 89 fb             	mov    %rdi,%rbx
  403564:	e8 87 f6 ff ff       	callq  402bf0 <_ZN4HTTP6Client13ConsumeMethodEv>
  403569:	83 f8 07             	cmp    $0x7,%eax
  40356c:	75 2a                	jne    403598 <_ZN4HTTP6Client18RunMessageExchangeEv+0x38>
  40356e:	48 89 df             	mov    %rbx,%rdi
  403571:	e8 0a fb ff ff       	callq  403080 <_ZN4HTTP6Client11ConsumePathEv>
  403576:	83 f8 07             	cmp    $0x7,%eax
  403579:	75 1d                	jne    403598 <_ZN4HTTP6Client18RunMessageExchangeEv+0x38>
  40357b:	48 89 df             	mov    %rbx,%rdi
  40357e:	e8 dd fe ff ff       	callq  403460 <_ZN4HTTP6Client14ConsumeVersionEv>
  403583:	83 f8 07             	cmp    $0x7,%eax
  403586:	75 10                	jne    403598 <_ZN4HTTP6Client18RunMessageExchangeEv+0x38>
  403588:	48 89 df             	mov    %rbx,%rdi
  40358b:	e8 10 00 00 00       	callq  4035a0 <_ZN4HTTP6Client13HandleRequestEv>
  403590:	83 f8 07             	cmp    $0x7,%eax
  403593:	0f 94 c0             	sete   %al
  403596:	5b                   	pop    %rbx
  403597:	c3                   	retq
  403598:	31 c0                	xor    %eax,%eax
  40359a:	5b                   	pop    %rbx
  40359b:	c3                   	retq
  40359c:	0f 1f 40 00          	nopl   0x0(%rax)

00000000004035a0 <_ZN4HTTP6Client13HandleRequestEv>:
  4035a0:	41 57                	push   %r15
  4035a2:	41 56                	push   %r14
  4035a4:	41 55                	push   %r13
  4035a6:	41 54                	push   %r12
  4035a8:	53                   	push   %rbx
  4035a9:	48 81 ec 10 02 00 00 	sub    $0x210,%rsp
  4035b0:	48 89 fb             	mov    %rdi,%rbx
  4035b3:	4c 8d 7c 24 38       	lea    0x38(%rsp),%r15
  4035b8:	4c 89 7c 24 28       	mov    %r15,0x28(%rsp)
  4035bd:	48 c7 84 24 88 00 00 	movq   $0x17,0x88(%rsp)
  4035c4:	00 17 00 00 00
  4035c9:	48 8d 7c 24 28       	lea    0x28(%rsp),%rdi
  4035ce:	48 8d b4 24 88 00 00 	lea    0x88(%rsp),%rsi
  4035d5:	00
  4035d6:	31 d2                	xor    %edx,%edx
  4035d8:	e8 23 ed ff ff       	callq  402300 <_ZNSt7__cxx1112basic_stringIcSt11char_traitsIcESaIcEE9_M_createERmm@plt>
  4035dd:	48 89 44 24 28       	mov    %rax,0x28(%rsp)
  4035e2:	48 8b 8c 24 88 00 00 	mov    0x88(%rsp),%rcx
  4035e9:	00
  4035ea:	48 89 4c 24 38       	mov    %rcx,0x38(%rsp)
  4035ef:	0f 10 05 6d 2a 00 00 	movups 0x2a6d(%rip),%xmm0        # 406063 <_IO_stdin_used+0x63>
  4035f6:	0f 11 00             	movups %xmm0,(%rax)
  4035f9:	48 ba 65 74 68 6f 64 	movabs $0x22203a646f687465,%rdx
  403600:	3a 20 22
  403603:	48 89 50 0f          	mov    %rdx,0xf(%rax)
  403607:	48 89 4c 24 30       	mov    %rcx,0x30(%rsp)
  40360c:	48 8b 44 24 28       	mov    0x28(%rsp),%rax
  403611:	c6 04 08 00          	movb   $0x0,(%rax,%rcx,1)
  403615:	4c 8d 64 24 18       	lea    0x18(%rsp),%r12
  40361a:	4c 89 64 24 08       	mov    %r12,0x8(%rsp)
  40361f:	48 c7 84 24 88 00 00 	movq   $0x17,0x88(%rsp)
  403626:	00 17 00 00 00
  40362b:	48 8d 7c 24 08       	lea    0x8(%rsp),%rdi
  403630:	48 8d b4 24 88 00 00 	lea    0x88(%rsp),%rsi
  403637:	00
  403638:	31 d2                	xor    %edx,%edx
  40363a:	e8 c1 ec ff ff       	callq  402300 <_ZNSt7__cxx1112basic_stringIcSt11char_traitsIcESaIcEE9_M_createERmm@plt>
  40363f:	48 89 44 24 08       	mov    %rax,0x8(%rsp)
  403644:	48 8b 8c 24 88 00 00 	mov    0x88(%rsp),%rcx
  40364b:	00
  40364c:	48 89 4c 24 18       	mov    %rcx,0x18(%rsp)
  403651:	0f 10 05 23 2a 00 00 	movups 0x2a23(%rip),%xmm0        # 40607b <_IO_stdin_used+0x7b>
  403658:	0f 11 00             	movups %xmm0,(%rax)
  40365b:	48 ba 20 70 61 74 68 	movabs $0x22203a6874617020,%rdx
  403662:	3a 20 22
  403665:	48 89 50 0f          	mov    %rdx,0xf(%rax)
  403669:	48 89 4c 24 10       	mov    %rcx,0x10(%rsp)
  40366e:	48 8b 44 24 08       	mov    0x8(%rsp),%rax
  403673:	c6 04 08 00          	movb   $0x0,(%rax,%rcx,1)
  403677:	4c 8d 6c 24 78       	lea    0x78(%rsp),%r13
  40367c:	4c 89 6c 24 68       	mov    %r13,0x68(%rsp)
  403681:	66 c7 44 24 78 22 00 	movw   $0x22,0x78(%rsp)
  403688:	48 c7 44 24 70 01 00 	movq   $0x1,0x70(%rsp)
  40368f:	00 00
  403691:	48 8d bc 24 88 00 00 	lea    0x88(%rsp),%rdi
  403698:	00
  403699:	e8 b2 ea ff ff       	callq  402150 <_ZNSt7__cxx1118basic_stringstreamIcSt11char_traitsIcESaIcEEC1Ev@plt>
  40369e:	4c 8d b4 24 98 00 00 	lea    0x98(%rsp),%r14
  4036a5:	00
  4036a6:	be 93 60 40 00       	mov    $0x406093,%esi
  4036ab:	ba 21 00 00 00       	mov    $0x21,%edx
  4036b0:	4c 89 f7             	mov    %r14,%rdi
  4036b3:	e8 18 eb ff ff       	callq  4021d0 <_ZSt16__ostream_insertIcSt11char_traitsIcEERSt13basic_ostreamIT_T0_ES6_PKS3_l@plt>
  4036b8:	48 8b 73 10          	mov    0x10(%rbx),%rsi
  4036bc:	48 03 74 24 30       	add    0x30(%rsp),%rsi
  4036c1:	48 03 74 24 10       	add    0x10(%rsp),%rsi
  4036c6:	48 03 73 30          	add    0x30(%rbx),%rsi
  4036ca:	48 03 74 24 70       	add    0x70(%rsp),%rsi
  4036cf:	4c 89 f7             	mov    %r14,%rdi
  4036d2:	e8 69 ea ff ff       	callq  402140 <_ZNSo9_M_insertImEERSoT_@plt>
  4036d7:	be b5 60 40 00       	mov    $0x4060b5,%esi
  4036dc:	ba 04 00 00 00       	mov    $0x4,%edx
  4036e1:	4c 89 f7             	mov    %r14,%rdi
  4036e4:	e8 e7 ea ff ff       	callq  4021d0 <_ZSt16__ostream_insertIcSt11char_traitsIcEERSt13basic_ostreamIT_T0_ES6_PKS3_l@plt>
  4036e9:	48 8b 74 24 28       	mov    0x28(%rsp),%rsi
  4036ee:	48 8b 54 24 30       	mov    0x30(%rsp),%rdx
  4036f3:	4c 89 f7             	mov    %r14,%rdi
  4036f6:	e8 d5 ea ff ff       	callq  4021d0 <_ZSt16__ostream_insertIcSt11char_traitsIcEERSt13basic_ostreamIT_T0_ES6_PKS3_l@plt>
  4036fb:	48 8b 73 08          	mov    0x8(%rbx),%rsi
  4036ff:	48 8b 53 10          	mov    0x10(%rbx),%rdx
  403703:	4c 89 f7             	mov    %r14,%rdi
  403706:	e8 c5 ea ff ff       	callq  4021d0 <_ZSt16__ostream_insertIcSt11char_traitsIcEERSt13basic_ostreamIT_T0_ES6_PKS3_l@plt>
  40370b:	48 8b 74 24 08       	mov    0x8(%rsp),%rsi
  403710:	48 8b 54 24 10       	mov    0x10(%rsp),%rdx
  403715:	4c 89 f7             	mov    %r14,%rdi
  403718:	e8 b3 ea ff ff       	callq  4021d0 <_ZSt16__ostream_insertIcSt11char_traitsIcEERSt13basic_ostreamIT_T0_ES6_PKS3_l@plt>
  40371d:	48 8b 73 28          	mov    0x28(%rbx),%rsi
  403721:	48 8b 53 30          	mov    0x30(%rbx),%rdx
  403725:	4c 89 f7             	mov    %r14,%rdi
  403728:	e8 a3 ea ff ff       	callq  4021d0 <_ZSt16__ostream_insertIcSt11char_traitsIcEERSt13basic_ostreamIT_T0_ES6_PKS3_l@plt>
  40372d:	48 8b 74 24 68       	mov    0x68(%rsp),%rsi
  403732:	48 8b 54 24 70       	mov    0x70(%rsp),%rdx
  403737:	4c 89 f7             	mov    %r14,%rdi
  40373a:	e8 91 ea ff ff       	callq  4021d0 <_ZSt16__ostream_insertIcSt11char_traitsIcEERSt13basic_ostreamIT_T0_ES6_PKS3_l@plt>
  40373f:	48 8b 1b             	mov    (%rbx),%rbx
  403742:	4c 8d 74 24 58       	lea    0x58(%rsp),%r14
  403747:	4c 89 74 24 48       	mov    %r14,0x48(%rsp)
  40374c:	48 c7 44 24 50 00 00 	movq   $0x0,0x50(%rsp)
  403753:	00 00
  403755:	c6 44 24 58 00       	movb   $0x0,0x58(%rsp)
  40375a:	4c 8b 84 24 c8 00 00 	mov    0xc8(%rsp),%r8
  403761:	00
  403762:	4d 85 c0             	test   %r8,%r8
  403765:	74 28                	je     40378f <_ZN4HTTP6Client13HandleRequestEv+0x1ef>
  403767:	48 8b 84 24 b8 00 00 	mov    0xb8(%rsp),%rax
  40376e:	00
  40376f:	48 8b 8c 24 c0 00 00 	mov    0xc0(%rsp),%rcx
  403776:	00
  403777:	49 39 c0             	cmp    %rax,%r8
  40377a:	76 27                	jbe    4037a3 <_ZN4HTTP6Client13HandleRequestEv+0x203>
  40377c:	49 29 c8             	sub    %rcx,%r8
  40377f:	48 8d 7c 24 48       	lea    0x48(%rsp),%rdi
  403784:	31 f6                	xor    %esi,%esi
  403786:	31 d2                	xor    %edx,%edx
  403788:	e8 d3 ea ff ff       	callq  402260 <_ZNSt7__cxx1112basic_stringIcSt11char_traitsIcESaIcEE10_M_replaceEmmPKcm@plt>
  40378d:	eb 28                	jmp    4037b7 <_ZN4HTTP6Client13HandleRequestEv+0x217>
  40378f:	48 8d b4 24 e8 00 00 	lea    0xe8(%rsp),%rsi
  403796:	00
  403797:	48 8d 7c 24 48       	lea    0x48(%rsp),%rdi
  40379c:	e8 6f e9 ff ff       	callq  402110 <_ZNSt7__cxx1112basic_stringIcSt11char_traitsIcESaIcEE9_M_assignERKS4_@plt>
  4037a1:	eb 14                	jmp    4037b7 <_ZN4HTTP6Client13HandleRequestEv+0x217>
  4037a3:	48 29 c8             	sub    %rcx,%rax
  4037a6:	48 8d 7c 24 48       	lea    0x48(%rsp),%rdi
  4037ab:	31 f6                	xor    %esi,%esi
  4037ad:	31 d2                	xor    %edx,%edx
  4037af:	49 89 c0             	mov    %rax,%r8
  4037b2:	e8 a9 ea ff ff       	callq  402260 <_ZNSt7__cxx1112basic_stringIcSt11char_traitsIcESaIcEE10_M_replaceEmmPKcm@plt>
  4037b7:	48 8d 74 24 48       	lea    0x48(%rsp),%rsi
  4037bc:	48 89 df             	mov    %rbx,%rdi
  4037bf:	31 d2                	xor    %edx,%edx
  4037c1:	e8 4a f2 ff ff       	callq  402a10 <_ZN10Connection11WriteStringERKNSt7__cxx1112basic_stringIcSt11char_traitsIcESaIcEEEb>
  4037c6:	89 c3                	mov    %eax,%ebx
  4037c8:	48 8b 7c 24 48       	mov    0x48(%rsp),%rdi
  4037cd:	4c 39 f7             	cmp    %r14,%rdi
  4037d0:	74 05                	je     4037d7 <_ZN4HTTP6Client13HandleRequestEv+0x237>
  4037d2:	e8 c9 e9 ff ff       	callq  4021a0 <_ZdlPv@plt>
  4037d7:	48 8b 05 22 53 00 00 	mov    0x5322(%rip),%rax        # 408b00 <_ZTTNSt7__cxx1118basic_stringstreamIcSt11char_traitsIcESaIcEEE@@GLIBCXX_3.4.21>
  4037de:	48 89 84 24 88 00 00 	mov    %rax,0x88(%rsp)
  4037e5:	00
  4037e6:	48 8b 0d 53 53 00 00 	mov    0x5353(%rip),%rcx        # 408b40 <_ZTTNSt7__cxx1118basic_stringstreamIcSt11char_traitsIcESaIcEEE@@GLIBCXX_3.4.21+0x40>
  4037ed:	48 8b 40 e8          	mov    -0x18(%rax),%rax
  4037f1:	48 89 8c 04 88 00 00 	mov    %rcx,0x88(%rsp,%rax,1)
  4037f8:	00
  4037f9:	48 8b 05 48 53 00 00 	mov    0x5348(%rip),%rax        # 408b48 <_ZTTNSt7__cxx1118basic_stringstreamIcSt11char_traitsIcESaIcEEE@@GLIBCXX_3.4.21+0x48>
  403800:	48 89 84 24 98 00 00 	mov    %rax,0x98(%rsp)
  403807:	00
  403808:	48 c7 84 24 a0 00 00 	movq   $0x408d30,0xa0(%rsp)
  40380f:	00 30 8d 40 00
  403814:	48 8b bc 24 e8 00 00 	mov    0xe8(%rsp),%rdi
  40381b:	00
  40381c:	48 8d 84 24 f8 00 00 	lea    0xf8(%rsp),%rax
  403823:	00
  403824:	48 39 c7             	cmp    %rax,%rdi
  403827:	74 05                	je     40382e <_ZN4HTTP6Client13HandleRequestEv+0x28e>
  403829:	e8 72 e9 ff ff       	callq  4021a0 <_ZdlPv@plt>
  40382e:	0f b6 db             	movzbl %bl,%ebx
  403831:	48 c7 84 24 a0 00 00 	movq   $0x408b60,0xa0(%rsp)
  403838:	00 60 8b 40 00
  40383d:	48 8d bc 24 d8 00 00 	lea    0xd8(%rsp),%rdi
  403844:	00
  403845:	e8 a6 e9 ff ff       	callq  4021f0 <_ZNSt6localeD1Ev@plt>
  40384a:	48 8b 05 bf 52 00 00 	mov    0x52bf(%rip),%rax        # 408b10 <_ZTTNSt7__cxx1118basic_stringstreamIcSt11char_traitsIcESaIcEEE@@GLIBCXX_3.4.21+0x10>
  403851:	48 89 84 24 88 00 00 	mov    %rax,0x88(%rsp)
  403858:	00
  403859:	48 8b 0d b8 52 00 00 	mov    0x52b8(%rip),%rcx        # 408b18 <_ZTTNSt7__cxx1118basic_stringstreamIcSt11char_traitsIcESaIcEEE@@GLIBCXX_3.4.21+0x18>
  403860:	48 8b 40 e8          	mov    -0x18(%rax),%rax
  403864:	48 89 8c 04 88 00 00 	mov    %rcx,0x88(%rsp,%rax,1)
  40386b:	00
  40386c:	48 c7 84 24 90 00 00 	movq   $0x0,0x90(%rsp)
  403873:	00 00 00 00 00
  403878:	48 8d bc 24 08 01 00 	lea    0x108(%rsp),%rdi
  40387f:	00
  403880:	e8 fb e7 ff ff       	callq  402080 <_ZNSt8ios_baseD2Ev@plt>
  403885:	48 8b 7c 24 68       	mov    0x68(%rsp),%rdi
  40388a:	4c 39 ef             	cmp    %r13,%rdi
  40388d:	74 05                	je     403894 <_ZN4HTTP6Client13HandleRequestEv+0x2f4>
  40388f:	e8 0c e9 ff ff       	callq  4021a0 <_ZdlPv@plt>
  403894:	48 8b 7c 24 08       	mov    0x8(%rsp),%rdi
  403899:	4c 39 e7             	cmp    %r12,%rdi
  40389c:	74 05                	je     4038a3 <_ZN4HTTP6Client13HandleRequestEv+0x303>
  40389e:	e8 fd e8 ff ff       	callq  4021a0 <_ZdlPv@plt>
  4038a3:	8d 1c 9d 03 00 00 00 	lea    0x3(,%rbx,4),%ebx
  4038aa:	48 8b 7c 24 28       	mov    0x28(%rsp),%rdi
  4038af:	4c 39 ff             	cmp    %r15,%rdi
  4038b2:	74 05                	je     4038b9 <_ZN4HTTP6Client13HandleRequestEv+0x319>
  4038b4:	e8 e7 e8 ff ff       	callq  4021a0 <_ZdlPv@plt>
  4038b9:	89 d8                	mov    %ebx,%eax
  4038bb:	48 81 c4 10 02 00 00 	add    $0x210,%rsp
  4038c2:	5b                   	pop    %rbx
  4038c3:	41 5c                	pop    %r12
  4038c5:	41 5d                	pop    %r13
  4038c7:	41 5e                	pop    %r14
  4038c9:	41 5f                	pop    %r15
  4038cb:	c3                   	retq
  4038cc:	48 89 c3             	mov    %rax,%rbx
  4038cf:	48 8b 7c 24 48       	mov    0x48(%rsp),%rdi
  4038d4:	4c 39 f7             	cmp    %r14,%rdi
  4038d7:	74 30                	je     403909 <_ZN4HTTP6Client13HandleRequestEv+0x369>
  4038d9:	e8 c2 e8 ff ff       	callq  4021a0 <_ZdlPv@plt>
  4038de:	eb 29                	jmp    403909 <_ZN4HTTP6Client13HandleRequestEv+0x369>
  4038e0:	48 89 c3             	mov    %rax,%rbx
  4038e3:	e9 cc 00 00 00       	jmpq   4039b4 <_ZN4HTTP6Client13HandleRequestEv+0x414>
  4038e8:	48 89 c3             	mov    %rax,%rbx
  4038eb:	48 8b 7c 24 28       	mov    0x28(%rsp),%rdi
  4038f0:	4c 39 ff             	cmp    %r15,%rdi
  4038f3:	0f 84 d9 00 00 00    	je     4039d2 <_ZN4HTTP6Client13HandleRequestEv+0x432>
  4038f9:	e9 fa 00 00 00       	jmpq   4039f8 <_ZN4HTTP6Client13HandleRequestEv+0x458>
  4038fe:	48 89 c7             	mov    %rax,%rdi
  403901:	e8 9a f0 ff ff       	callq  4029a0 <__clang_call_terminate>
  403906:	48 89 c3             	mov    %rax,%rbx
  403909:	48 8b 05 f0 51 00 00 	mov    0x51f0(%rip),%rax        # 408b00 <_ZTTNSt7__cxx1118basic_stringstreamIcSt11char_traitsIcESaIcEEE@@GLIBCXX_3.4.21>
  403910:	48 89 84 24 88 00 00 	mov    %rax,0x88(%rsp)
  403917:	00
  403918:	48 8b 0d 21 52 00 00 	mov    0x5221(%rip),%rcx        # 408b40 <_ZTTNSt7__cxx1118basic_stringstreamIcSt11char_traitsIcESaIcEEE@@GLIBCXX_3.4.21+0x40>
  40391f:	48 8b 40 e8          	mov    -0x18(%rax),%rax
  403923:	48 89 8c 04 88 00 00 	mov    %rcx,0x88(%rsp,%rax,1)
  40392a:	00
  40392b:	48 8b 05 16 52 00 00 	mov    0x5216(%rip),%rax        # 408b48 <_ZTTNSt7__cxx1118basic_stringstreamIcSt11char_traitsIcESaIcEEE@@GLIBCXX_3.4.21+0x48>
  403932:	48 89 84 24 98 00 00 	mov    %rax,0x98(%rsp)
  403939:	00
  40393a:	48 c7 84 24 a0 00 00 	movq   $0x408d30,0xa0(%rsp)
  403941:	00 30 8d 40 00
  403946:	48 8b bc 24 e8 00 00 	mov    0xe8(%rsp),%rdi
  40394d:	00
  40394e:	48 8d 84 24 f8 00 00 	lea    0xf8(%rsp),%rax
  403955:	00
  403956:	48 39 c7             	cmp    %rax,%rdi
  403959:	74 05                	je     403960 <_ZN4HTTP6Client13HandleRequestEv+0x3c0>
  40395b:	e8 40 e8 ff ff       	callq  4021a0 <_ZdlPv@plt>
  403960:	48 c7 84 24 a0 00 00 	movq   $0x408b60,0xa0(%rsp)
  403967:	00 60 8b 40 00
  40396c:	48 8d bc 24 d8 00 00 	lea    0xd8(%rsp),%rdi
  403973:	00
  403974:	e8 77 e8 ff ff       	callq  4021f0 <_ZNSt6localeD1Ev@plt>
  403979:	48 8b 05 90 51 00 00 	mov    0x5190(%rip),%rax        # 408b10 <_ZTTNSt7__cxx1118basic_stringstreamIcSt11char_traitsIcESaIcEEE@@GLIBCXX_3.4.21+0x10>
  403980:	48 89 84 24 88 00 00 	mov    %rax,0x88(%rsp)
  403987:	00
  403988:	48 8b 0d 89 51 00 00 	mov    0x5189(%rip),%rcx        # 408b18 <_ZTTNSt7__cxx1118basic_stringstreamIcSt11char_traitsIcESaIcEEE@@GLIBCXX_3.4.21+0x18>
  40398f:	48 8b 40 e8          	mov    -0x18(%rax),%rax
  403993:	48 89 8c 04 88 00 00 	mov    %rcx,0x88(%rsp,%rax,1)
  40399a:	00
  40399b:	48 c7 84 24 90 00 00 	movq   $0x0,0x90(%rsp)
  4039a2:	00 00 00 00 00
  4039a7:	48 8d bc 24 08 01 00 	lea    0x108(%rsp),%rdi
  4039ae:	00
  4039af:	e8 cc e6 ff ff       	callq  402080 <_ZNSt8ios_baseD2Ev@plt>
  4039b4:	48 8b 7c 24 68       	mov    0x68(%rsp),%rdi
  4039b9:	4c 39 ef             	cmp    %r13,%rdi
  4039bc:	75 1c                	jne    4039da <_ZN4HTTP6Client13HandleRequestEv+0x43a>
  4039be:	48 8b 7c 24 08       	mov    0x8(%rsp),%rdi
  4039c3:	4c 39 e7             	cmp    %r12,%rdi
  4039c6:	75 21                	jne    4039e9 <_ZN4HTTP6Client13HandleRequestEv+0x449>
  4039c8:	48 8b 7c 24 28       	mov    0x28(%rsp),%rdi
  4039cd:	4c 39 ff             	cmp    %r15,%rdi
  4039d0:	75 26                	jne    4039f8 <_ZN4HTTP6Client13HandleRequestEv+0x458>
  4039d2:	48 89 df             	mov    %rbx,%rdi
  4039d5:	e8 c6 ef ff ff       	callq  4029a0 <__clang_call_terminate>
  4039da:	e8 c1 e7 ff ff       	callq  4021a0 <_ZdlPv@plt>
  4039df:	48 8b 7c 24 08       	mov    0x8(%rsp),%rdi
  4039e4:	4c 39 e7             	cmp    %r12,%rdi
  4039e7:	74 df                	je     4039c8 <_ZN4HTTP6Client13HandleRequestEv+0x428>
  4039e9:	e8 b2 e7 ff ff       	callq  4021a0 <_ZdlPv@plt>
  4039ee:	48 8b 7c 24 28       	mov    0x28(%rsp),%rdi
  4039f3:	4c 39 ff             	cmp    %r15,%rdi
  4039f6:	74 da                	je     4039d2 <_ZN4HTTP6Client13HandleRequestEv+0x432>
  4039f8:	e8 a3 e7 ff ff       	callq  4021a0 <_ZdlPv@plt>
  4039fd:	48 89 df             	mov    %rbx,%rdi
  403a00:	e8 9b ef ff ff       	callq  4029a0 <__clang_call_terminate>
  403a05:	66 2e 0f 1f 84 00 00 	nopw   %cs:0x0(%rax,%rax,1)
  403a0c:	00 00 00
  403a0f:	90                   	nop

0000000000403a10 <_ZN4HTTP6Client12RecoverErrorEv>:
  403a10:	31 c0                	xor    %eax,%eax
  403a12:	c3                   	retq
  403a13:	66 2e 0f 1f 84 00 00 	nopw   %cs:0x0(%rax,%rax,1)
  403a1a:	00 00 00
  403a1d:	0f 1f 00             	nopl   (%rax)

0000000000403a20 <_ZN4HTTP6Client18ResetExchangeStateEv>:
  403a20:	41 57                	push   %r15
  403a22:	41 56                	push   %r14
  403a24:	53                   	push   %rbx
  403a25:	48 83 ec 40          	sub    $0x40,%rsp
  403a29:	48 89 fb             	mov    %rdi,%rbx
  403a2c:	0f 57 c0             	xorps  %xmm0,%xmm0
  403a2f:	0f 29 04 24          	movaps %xmm0,(%rsp)
  403a33:	0f 29 44 24 10       	movaps %xmm0,0x10(%rsp)
  403a38:	0f 29 44 24 20       	movaps %xmm0,0x20(%rsp)
  403a3d:	0f 29 44 24 30       	movaps %xmm0,0x30(%rsp)
  403a42:	4c 8d 74 24 30       	lea    0x30(%rsp),%r14
  403a47:	4c 8d 7c 24 10       	lea    0x10(%rsp),%r15
  403a4c:	4c 89 3c 24          	mov    %r15,(%rsp)
  403a50:	c6 44 24 10 00       	movb   $0x0,0x10(%rsp)
  403a55:	4c 89 74 24 20       	mov    %r14,0x20(%rsp)
  403a5a:	48 c7 44 24 28 00 00 	movq   $0x0,0x28(%rsp)
  403a61:	00 00
  403a63:	c6 44 24 30 00       	movb   $0x0,0x30(%rsp)
  403a68:	48 c7 47 10 00 00 00 	movq   $0x0,0x10(%rdi)
  403a6f:	00
  403a70:	48 8b 47 08          	mov    0x8(%rdi),%rax
  403a74:	c6 00 00             	movb   $0x0,(%rax)
  403a77:	48 8b 04 24          	mov    (%rsp),%rax
  403a7b:	48 c7 44 24 08 00 00 	movq   $0x0,0x8(%rsp)
  403a82:	00 00
  403a84:	c6 00 00             	movb   $0x0,(%rax)
  403a87:	48 8b 4c 24 20       	mov    0x20(%rsp),%rcx
  403a8c:	4c 39 f1             	cmp    %r14,%rcx
  403a8f:	74 13                	je     403aa4 <_ZN4HTTP6Client18ResetExchangeStateEv+0x84>
  403a91:	48 8d 53 38          	lea    0x38(%rbx),%rdx
  403a95:	48 8b 43 28          	mov    0x28(%rbx),%rax
  403a99:	48 39 d0             	cmp    %rdx,%rax
  403a9c:	74 22                	je     403ac0 <_ZN4HTTP6Client18ResetExchangeStateEv+0xa0>
  403a9e:	48 8b 53 38          	mov    0x38(%rbx),%rdx
  403aa2:	eb 1e                	jmp    403ac2 <_ZN4HTTP6Client18ResetExchangeStateEv+0xa2>
  403aa4:	48 8b 54 24 28       	mov    0x28(%rsp),%rdx
  403aa9:	48 85 d2             	test   %rdx,%rdx
  403aac:	74 44                	je     403af2 <_ZN4HTTP6Client18ResetExchangeStateEv+0xd2>
  403aae:	48 8b 7b 28          	mov    0x28(%rbx),%rdi
  403ab2:	48 83 fa 01          	cmp    $0x1,%rdx
  403ab6:	75 32                	jne    403aea <_ZN4HTTP6Client18ResetExchangeStateEv+0xca>
  403ab8:	8a 44 24 30          	mov    0x30(%rsp),%al
  403abc:	88 07                	mov    %al,(%rdi)
  403abe:	eb 32                	jmp    403af2 <_ZN4HTTP6Client18ResetExchangeStateEv+0xd2>
  403ac0:	31 c0                	xor    %eax,%eax
  403ac2:	48 89 4b 28          	mov    %rcx,0x28(%rbx)
  403ac6:	0f 10 44 24 28       	movups 0x28(%rsp),%xmm0
  403acb:	0f 11 43 30          	movups %xmm0,0x30(%rbx)
  403acf:	48 85 c0             	test   %rax,%rax
  403ad2:	74 0c                	je     403ae0 <_ZN4HTTP6Client18ResetExchangeStateEv+0xc0>
  403ad4:	48 89 44 24 20       	mov    %rax,0x20(%rsp)
  403ad9:	48 89 54 24 30       	mov    %rdx,0x30(%rsp)
  403ade:	eb 28                	jmp    403b08 <_ZN4HTTP6Client18ResetExchangeStateEv+0xe8>
  403ae0:	4c 89 74 24 20       	mov    %r14,0x20(%rsp)
  403ae5:	4c 89 f0             	mov    %r14,%rax
  403ae8:	eb 1e                	jmp    403b08 <_ZN4HTTP6Client18ResetExchangeStateEv+0xe8>
  403aea:	4c 89 f6             	mov    %r14,%rsi
  403aed:	e8 7e e6 ff ff       	callq  402170 <memcpy@plt>
  403af2:	48 8b 44 24 28       	mov    0x28(%rsp),%rax
  403af7:	48 89 43 30          	mov    %rax,0x30(%rbx)
  403afb:	48 8b 4b 28          	mov    0x28(%rbx),%rcx
  403aff:	c6 04 01 00          	movb   $0x0,(%rcx,%rax,1)
  403b03:	48 8b 44 24 20       	mov    0x20(%rsp),%rax
  403b08:	48 c7 44 24 28 00 00 	movq   $0x0,0x28(%rsp)
  403b0f:	00 00
  403b11:	c6 00 00             	movb   $0x0,(%rax)
  403b14:	48 8b 7c 24 20       	mov    0x20(%rsp),%rdi
  403b19:	4c 39 f7             	cmp    %r14,%rdi
  403b1c:	74 05                	je     403b23 <_ZN4HTTP6Client18ResetExchangeStateEv+0x103>
  403b1e:	e8 7d e6 ff ff       	callq  4021a0 <_ZdlPv@plt>
  403b23:	48 8b 3c 24          	mov    (%rsp),%rdi
  403b27:	4c 39 ff             	cmp    %r15,%rdi
  403b2a:	74 05                	je     403b31 <_ZN4HTTP6Client18ResetExchangeStateEv+0x111>
  403b2c:	e8 6f e6 ff ff       	callq  4021a0 <_ZdlPv@plt>
  403b31:	48 83 c4 40          	add    $0x40,%rsp
  403b35:	5b                   	pop    %rbx
  403b36:	41 5e                	pop    %r14
  403b38:	41 5f                	pop    %r15
  403b3a:	c3                   	retq
  403b3b:	0f 1f 44 00 00       	nopl   0x0(%rax,%rax,1)

0000000000403b40 <_ZN4HTTP7RequestD2Ev>:
  403b40:	53                   	push   %rbx
  403b41:	48 89 fb             	mov    %rdi,%rbx
  403b44:	48 8b 7f 20          	mov    0x20(%rdi),%rdi
  403b48:	48 8d 43 30          	lea    0x30(%rbx),%rax
  403b4c:	48 39 c7             	cmp    %rax,%rdi
  403b4f:	74 05                	je     403b56 <_ZN4HTTP7RequestD2Ev+0x16>
  403b51:	e8 4a e6 ff ff       	callq  4021a0 <_ZdlPv@plt>
  403b56:	48 8b 3b             	mov    (%rbx),%rdi
  403b59:	48 83 c3 10          	add    $0x10,%rbx
  403b5d:	48 39 df             	cmp    %rbx,%rdi
  403b60:	74 06                	je     403b68 <_ZN4HTTP7RequestD2Ev+0x28>
  403b62:	5b                   	pop    %rbx
  403b63:	e9 38 e6 ff ff       	jmpq   4021a0 <_ZdlPv@plt>
  403b68:	5b                   	pop    %rbx
  403b69:	c3                   	retq
  403b6a:	66 0f 1f 44 00 00    	nopw   0x0(%rax,%rax,1)

0000000000403b70 <_ZNSt10unique_ptrI10ConnectionSt14default_deleteIS0_EED2Ev>:
  403b70:	41 56                	push   %r14
  403b72:	53                   	push   %rbx
  403b73:	50                   	push   %rax
  403b74:	49 89 fe             	mov    %rdi,%r14
  403b77:	48 8b 1f             	mov    (%rdi),%rbx
  403b7a:	48 85 db             	test   %rbx,%rbx
  403b7d:	74 10                	je     403b8f <_ZNSt10unique_ptrI10ConnectionSt14default_deleteIS0_EED2Ev+0x1f>
  403b7f:	48 89 df             	mov    %rbx,%rdi
  403b82:	e8 29 ee ff ff       	callq  4029b0 <_ZN10ConnectionD1Ev>
  403b87:	48 89 df             	mov    %rbx,%rdi
  403b8a:	e8 11 e6 ff ff       	callq  4021a0 <_ZdlPv@plt>
  403b8f:	49 c7 06 00 00 00 00 	movq   $0x0,(%r14)
  403b96:	48 83 c4 08          	add    $0x8,%rsp
  403b9a:	5b                   	pop    %rbx
  403b9b:	41 5e                	pop    %r14
  403b9d:	c3                   	retq
  403b9e:	66 90                	xchg   %ax,%ax

0000000000403ba0 <_ZNSt6vectorIcSaIcEED2Ev>:
  403ba0:	48 8b 3f             	mov    (%rdi),%rdi
  403ba3:	48 85 ff             	test   %rdi,%rdi
  403ba6:	74 05                	je     403bad <_ZNSt6vectorIcSaIcEED2Ev+0xd>
  403ba8:	e9 f3 e5 ff ff       	jmpq   4021a0 <_ZdlPv@plt>
  403bad:	c3                   	retq
  403bae:	66 90                	xchg   %ax,%ax

0000000000403bb0 <_ZNSt6thread11_State_implINS_8_InvokerISt5tupleIJMN4HTTP6ClientEFvvEPS4_EEEEED0Ev>:
  403bb0:	53                   	push   %rbx
  403bb1:	48 89 fb             	mov    %rdi,%rbx
  403bb4:	e8 27 e5 ff ff       	callq  4020e0 <_ZNSt6thread6_StateD2Ev@plt>
  403bb9:	48 89 df             	mov    %rbx,%rdi
  403bbc:	5b                   	pop    %rbx
  403bbd:	e9 de e5 ff ff       	jmpq   4021a0 <_ZdlPv@plt>
  403bc2:	66 2e 0f 1f 84 00 00 	nopw   %cs:0x0(%rax,%rax,1)
  403bc9:	00 00 00
  403bcc:	0f 1f 40 00          	nopl   0x0(%rax)

0000000000403bd0 <_ZNSt6thread11_State_implINS_8_InvokerISt5tupleIJMN4HTTP6ClientEFvvEPS4_EEEEE6_M_runEv>:
  403bd0:	48 89 f8             	mov    %rdi,%rax
  403bd3:	48 8b 7f 08          	mov    0x8(%rdi),%rdi
  403bd7:	48 8b 48 10          	mov    0x10(%rax),%rcx
  403bdb:	48 03 78 18          	add    0x18(%rax),%rdi
  403bdf:	f6 c1 01             	test   $0x1,%cl
  403be2:	74 08                	je     403bec <_ZNSt6thread11_State_implINS_8_InvokerISt5tupleIJMN4HTTP6ClientEFvvEPS4_EEEEE6_M_runEv+0x1c>
  403be4:	48 8b 07             	mov    (%rdi),%rax
  403be7:	48 8b 4c 01 ff       	mov    -0x1(%rcx,%rax,1),%rcx
  403bec:	ff e1                	jmpq   *%rcx
  403bee:	66 90                	xchg   %ax,%ax

0000000000403bf0 <_ZN4HTTP6Server5StartEv>:
  403bf0:	41 56                	push   %r14
  403bf2:	53                   	push   %rbx
  403bf3:	50                   	push   %rax
  403bf4:	48 89 fb             	mov    %rdi,%rbx
  403bf7:	bf 08 00 00 00       	mov    $0x8,%edi
  403bfc:	e8 af e5 ff ff       	callq  4021b0 <_Znwm@plt>
  403c01:	49 89 c6             	mov    %rax,%r14
  403c04:	48 c7 00 00 00 00 00 	movq   $0x0,(%rax)
  403c0b:	bf 20 00 00 00       	mov    $0x20,%edi
  403c10:	e8 9b e5 ff ff       	callq  4021b0 <_Znwm@plt>
  403c15:	48 c7 00 08 63 40 00 	movq   $0x406308,(%rax)
  403c1c:	48 89 58 08          	mov    %rbx,0x8(%rax)
  403c20:	48 c7 40 10 a0 3c 40 	movq   $0x403ca0,0x10(%rax)
  403c27:	00
  403c28:	48 c7 40 18 00 00 00 	movq   $0x0,0x18(%rax)
  403c2f:	00
  403c30:	48 89 04 24          	mov    %rax,(%rsp)
  403c34:	48 89 e6             	mov    %rsp,%rsi
  403c37:	ba 20 21 40 00       	mov    $0x402120,%edx
  403c3c:	4c 89 f7             	mov    %r14,%rdi
  403c3f:	e8 4c e5 ff ff       	callq  402190 <_ZNSt6thread15_M_start_threadESt10unique_ptrINS_6_StateESt14default_deleteIS1_EEPFvvE@plt>
  403c44:	48 8b 3c 24          	mov    (%rsp),%rdi
  403c48:	48 85 ff             	test   %rdi,%rdi
  403c4b:	74 06                	je     403c53 <_ZN4HTTP6Server5StartEv+0x63>
  403c4d:	48 8b 07             	mov    (%rdi),%rax
  403c50:	ff 50 08             	callq  *0x8(%rax)
  403c53:	48 8b 7b 10          	mov    0x10(%rbx),%rdi
  403c57:	4c 89 73 10          	mov    %r14,0x10(%rbx)
  403c5b:	48 85 ff             	test   %rdi,%rdi
  403c5e:	74 0b                	je     403c6b <_ZN4HTTP6Server5StartEv+0x7b>
  403c60:	48 83 3f 00          	cmpq   $0x0,(%rdi)
  403c64:	75 0d                	jne    403c73 <_ZN4HTTP6Server5StartEv+0x83>
  403c66:	e8 35 e5 ff ff       	callq  4021a0 <_ZdlPv@plt>
  403c6b:	48 83 c4 08          	add    $0x8,%rsp
  403c6f:	5b                   	pop    %rbx
  403c70:	41 5e                	pop    %r14
  403c72:	c3                   	retq
  403c73:	e8 e8 e3 ff ff       	callq  402060 <_ZSt9terminatev@plt>
  403c78:	48 89 c3             	mov    %rax,%rbx
  403c7b:	48 8b 3c 24          	mov    (%rsp),%rdi
  403c7f:	48 85 ff             	test   %rdi,%rdi
  403c82:	74 0b                	je     403c8f <_ZN4HTTP6Server5StartEv+0x9f>
  403c84:	48 8b 07             	mov    (%rdi),%rax
  403c87:	ff 50 08             	callq  *0x8(%rax)
  403c8a:	eb 03                	jmp    403c8f <_ZN4HTTP6Server5StartEv+0x9f>
  403c8c:	48 89 c3             	mov    %rax,%rbx
  403c8f:	4c 89 f7             	mov    %r14,%rdi
  403c92:	e8 09 e5 ff ff       	callq  4021a0 <_ZdlPv@plt>
  403c97:	48 89 df             	mov    %rbx,%rdi
  403c9a:	e8 41 e6 ff ff       	callq  4022e0 <_Unwind_Resume@plt>
  403c9f:	90                   	nop

0000000000403ca0 <_ZN4HTTP6Server13InternalStartEv>:
  403ca0:	41 57                	push   %r15
  403ca2:	41 56                	push   %r14
  403ca4:	53                   	push   %rbx
  403ca5:	48 83 ec 50          	sub    $0x50,%rsp
  403ca9:	48 89 fb             	mov    %rdi,%rbx
  403cac:	e8 bf 01 00 00       	callq  403e70 <_ZN4HTTP6Server12CreateServerEv>
  403cb1:	84 c0                	test   %al,%al
  403cb3:	74 67                	je     403d1c <_ZN4HTTP6Server13InternalStartEv+0x7c>
  403cb5:	8b 43 18             	mov    0x18(%rbx),%eax
  403cb8:	89 44 24 08          	mov    %eax,0x8(%rsp)
  403cbc:	c7 44 24 0c 01 00 00 	movl   $0x1,0xc(%rsp)
  403cc3:	00
  403cc4:	80 7b 78 00          	cmpb   $0x0,0x78(%rbx)
  403cc8:	0f 85 46 01 00 00    	jne    403e14 <_ZN4HTTP6Server13InternalStartEv+0x174>
  403cce:	4c 8d 74 24 08       	lea    0x8(%rsp),%r14
  403cd3:	eb 1a                	jmp    403cef <_ZN4HTTP6Server13InternalStartEv+0x4f>
  403cd5:	66 2e 0f 1f 84 00 00 	nopw   %cs:0x0(%rax,%rax,1)
  403cdc:	00 00 00
  403cdf:	90                   	nop
  403ce0:	e8 2b e5 ff ff       	callq  402210 <sched_yield@plt>
  403ce5:	80 7b 78 00          	cmpb   $0x0,0x78(%rbx)
  403ce9:	0f 85 25 01 00 00    	jne    403e14 <_ZN4HTTP6Server13InternalStartEv+0x174>
  403cef:	8b 53 08             	mov    0x8(%rbx),%edx
  403cf2:	be 01 00 00 00       	mov    $0x1,%esi
  403cf7:	4c 89 f7             	mov    %r14,%rdi
  403cfa:	e8 31 e5 ff ff       	callq  402230 <poll@plt>
  403cff:	85 c0                	test   %eax,%eax
  403d01:	74 dd                	je     403ce0 <_ZN4HTTP6Server13InternalStartEv+0x40>
  403d03:	0f 88 15 01 00 00    	js     403e1e <_ZN4HTTP6Server13InternalStartEv+0x17e>
  403d09:	48 89 df             	mov    %rbx,%rdi
  403d0c:	e8 af 06 00 00       	callq  4043c0 <_ZN4HTTP6Server12AcceptClientEv>
  403d11:	80 7b 78 00          	cmpb   $0x0,0x78(%rbx)
  403d15:	74 d8                	je     403cef <_ZN4HTTP6Server13InternalStartEv+0x4f>
  403d17:	e9 f8 00 00 00       	jmpq   403e14 <_ZN4HTTP6Server13InternalStartEv+0x174>
  403d1c:	4c 8d 74 24 18       	lea    0x18(%rsp),%r14
  403d21:	4c 89 74 24 08       	mov    %r14,0x8(%rsp)
  403d26:	48 b8 48 54 54 50 53 	movabs $0x7672655350545448,%rax
  403d2d:	65 72 76
  403d30:	48 89 44 24 18       	mov    %rax,0x18(%rsp)
  403d35:	66 c7 44 24 20 65 72 	movw   $0x7265,0x20(%rsp)
  403d3c:	48 c7 44 24 10 0a 00 	movq   $0xa,0x10(%rsp)
  403d43:	00 00
  403d45:	c6 44 24 22 00       	movb   $0x0,0x22(%rsp)
  403d4a:	4c 8d 7c 24 40       	lea    0x40(%rsp),%r15
  403d4f:	4c 89 7c 24 30       	mov    %r15,0x30(%rsp)
  403d54:	48 c7 44 24 28 10 00 	movq   $0x10,0x28(%rsp)
  403d5b:	00 00
  403d5d:	48 8d 7c 24 30       	lea    0x30(%rsp),%rdi
  403d62:	48 8d 74 24 28       	lea    0x28(%rsp),%rsi
  403d67:	31 d2                	xor    %edx,%edx
  403d69:	e8 92 e5 ff ff       	callq  402300 <_ZNSt7__cxx1112basic_stringIcSt11char_traitsIcESaIcEE9_M_createERmm@plt>
  403d6e:	48 89 44 24 30       	mov    %rax,0x30(%rsp)
  403d73:	48 8b 4c 24 28       	mov    0x28(%rsp),%rcx
  403d78:	48 89 4c 24 40       	mov    %rcx,0x40(%rsp)
  403d7d:	0f 10 05 ef 23 00 00 	movups 0x23ef(%rip),%xmm0        # 406173 <_ZTINSt6thread11_State_implINS_8_InvokerISt5tupleIJMN4HTTP6ClientEFvvEPS4_EEEEEE+0x23>
  403d84:	0f 11 00             	movups %xmm0,(%rax)
  403d87:	48 89 4c 24 38       	mov    %rcx,0x38(%rsp)
  403d8c:	48 8b 44 24 30       	mov    0x30(%rsp),%rax
  403d91:	c6 04 08 00          	movb   $0x0,(%rax,%rcx,1)
  403d95:	bf c0 91 40 00       	mov    $0x4091c0,%edi
  403d9a:	be 35 62 40 00       	mov    $0x406235,%esi
  403d9f:	ba 17 00 00 00       	mov    $0x17,%edx
  403da4:	e8 27 e4 ff ff       	callq  4021d0 <_ZSt16__ostream_insertIcSt11char_traitsIcEERSt13basic_ostreamIT_T0_ES6_PKS3_l@plt>
  403da9:	48 8b 74 24 08       	mov    0x8(%rsp),%rsi
  403dae:	48 8b 54 24 10       	mov    0x10(%rsp),%rdx
  403db3:	bf c0 91 40 00       	mov    $0x4091c0,%edi
  403db8:	e8 13 e4 ff ff       	callq  4021d0 <_ZSt16__ostream_insertIcSt11char_traitsIcEERSt13basic_ostreamIT_T0_ES6_PKS3_l@plt>
  403dbd:	48 89 c3             	mov    %rax,%rbx
  403dc0:	be 4d 62 40 00       	mov    $0x40624d,%esi
  403dc5:	ba 0b 00 00 00       	mov    $0xb,%edx
  403dca:	48 89 c7             	mov    %rax,%rdi
  403dcd:	e8 fe e3 ff ff       	callq  4021d0 <_ZSt16__ostream_insertIcSt11char_traitsIcEERSt13basic_ostreamIT_T0_ES6_PKS3_l@plt>
  403dd2:	48 8b 74 24 30       	mov    0x30(%rsp),%rsi
  403dd7:	48 8b 54 24 38       	mov    0x38(%rsp),%rdx
  403ddc:	48 89 df             	mov    %rbx,%rdi
  403ddf:	e8 ec e3 ff ff       	callq  4021d0 <_ZSt16__ostream_insertIcSt11char_traitsIcEERSt13basic_ostreamIT_T0_ES6_PKS3_l@plt>
  403de4:	be 5d 60 40 00       	mov    $0x40605d,%esi
  403de9:	ba 05 00 00 00       	mov    $0x5,%edx
  403dee:	48 89 c7             	mov    %rax,%rdi
  403df1:	e8 da e3 ff ff       	callq  4021d0 <_ZSt16__ostream_insertIcSt11char_traitsIcEERSt13basic_ostreamIT_T0_ES6_PKS3_l@plt>
  403df6:	48 8b 7c 24 30       	mov    0x30(%rsp),%rdi
  403dfb:	4c 39 ff             	cmp    %r15,%rdi
  403dfe:	74 05                	je     403e05 <_ZN4HTTP6Server13InternalStartEv+0x165>
  403e00:	e8 9b e3 ff ff       	callq  4021a0 <_ZdlPv@plt>
  403e05:	48 8b 7c 24 08       	mov    0x8(%rsp),%rdi
  403e0a:	4c 39 f7             	cmp    %r14,%rdi
  403e0d:	74 05                	je     403e14 <_ZN4HTTP6Server13InternalStartEv+0x174>
  403e0f:	e8 8c e3 ff ff       	callq  4021a0 <_ZdlPv@plt>
  403e14:	48 83 c4 50          	add    $0x50,%rsp
  403e18:	5b                   	pop    %rbx
  403e19:	41 5e                	pop    %r14
  403e1b:	41 5f                	pop    %r15
  403e1d:	c3                   	retq
  403e1e:	e8 5d 04 00 00       	callq  404280 <_ZN4HTTP6Server17HandlePollFailureEv>
  403e23:	48 89 c3             	mov    %rax,%rbx
  403e26:	48 8b 7c 24 08       	mov    0x8(%rsp),%rdi
  403e2b:	4c 39 f7             	cmp    %r14,%rdi
  403e2e:	74 19                	je     403e49 <_ZN4HTTP6Server13InternalStartEv+0x1a9>
  403e30:	eb 2e                	jmp    403e60 <_ZN4HTTP6Server13InternalStartEv+0x1c0>
  403e32:	48 89 c3             	mov    %rax,%rbx
  403e35:	48 8b 7c 24 30       	mov    0x30(%rsp),%rdi
  403e3a:	4c 39 ff             	cmp    %r15,%rdi
  403e3d:	75 12                	jne    403e51 <_ZN4HTTP6Server13InternalStartEv+0x1b1>
  403e3f:	48 8b 7c 24 08       	mov    0x8(%rsp),%rdi
  403e44:	4c 39 f7             	cmp    %r14,%rdi
  403e47:	75 17                	jne    403e60 <_ZN4HTTP6Server13InternalStartEv+0x1c0>
  403e49:	48 89 df             	mov    %rbx,%rdi
  403e4c:	e8 8f e4 ff ff       	callq  4022e0 <_Unwind_Resume@plt>
  403e51:	e8 4a e3 ff ff       	callq  4021a0 <_ZdlPv@plt>
  403e56:	48 8b 7c 24 08       	mov    0x8(%rsp),%rdi
  403e5b:	4c 39 f7             	cmp    %r14,%rdi
  403e5e:	74 e9                	je     403e49 <_ZN4HTTP6Server13InternalStartEv+0x1a9>
  403e60:	e8 3b e3 ff ff       	callq  4021a0 <_ZdlPv@plt>
  403e65:	48 89 df             	mov    %rbx,%rdi
  403e68:	e8 73 e4 ff ff       	callq  4022e0 <_Unwind_Resume@plt>
  403e6d:	0f 1f 00             	nopl   (%rax)

0000000000403e70 <_ZN4HTTP6Server12CreateServerEv>:
  403e70:	55                   	push   %rbp
  403e71:	41 56                	push   %r14
  403e73:	53                   	push   %rbx
  403e74:	48 81 ec d0 01 00 00 	sub    $0x1d0,%rsp
  403e7b:	48 89 fb             	mov    %rdi,%rbx
  403e7e:	bf 02 00 00 00       	mov    $0x2,%edi
  403e83:	be 01 00 00 00       	mov    $0x1,%esi
  403e88:	31 d2                	xor    %edx,%edx
  403e8a:	e8 c1 e1 ff ff       	callq  402050 <socket@plt>
  403e8f:	89 43 18             	mov    %eax,0x18(%rbx)
  403e92:	83 f8 ff             	cmp    $0xffffffff,%eax
  403e95:	74 32                	je     403ec9 <_ZN4HTTP6Server12CreateServerEv+0x59>
  403e97:	48 c7 44 24 48 20 48 	movq   $0x404820,0x48(%rsp)
  403e9e:	40 00
  403ea0:	48 c7 44 24 50 00 00 	movq   $0x0,0x50(%rsp)
  403ea7:	00 00
  403ea9:	48 8b 43 28          	mov    0x28(%rbx),%rax
  403ead:	48 3b 43 30          	cmp    0x30(%rbx),%rax
  403eb1:	74 20                	je     403ed3 <_ZN4HTTP6Server12CreateServerEv+0x63>
  403eb3:	be 20 48 40 00       	mov    $0x404820,%esi
  403eb8:	48 89 c7             	mov    %rax,%rdi
  403ebb:	31 d2                	xor    %edx,%edx
  403ebd:	e8 ee 12 00 00       	callq  4051b0 <_ZNSt8functionIFvPN4HTTP6ServerEEEC2IMS1_DoFvvEvvEET_>
  403ec2:	48 83 43 28 20       	addq   $0x20,0x28(%rbx)
  403ec7:	eb 1b                	jmp    403ee4 <_ZN4HTTP6Server12CreateServerEv+0x74>
  403ec9:	bd 05 00 00 00       	mov    $0x5,%ebp
  403ece:	e9 b4 00 00 00       	jmpq   403f87 <_ZN4HTTP6Server12CreateServerEv+0x117>
  403ed3:	48 8d 7b 20          	lea    0x20(%rbx),%rdi
  403ed7:	48 8d 54 24 48       	lea    0x48(%rsp),%rdx
  403edc:	48 89 c6             	mov    %rax,%rsi
  403edf:	e8 9c 10 00 00       	callq  404f80 <_ZNSt6vectorISt8functionIFvPN4HTTP6ServerEEESaIS5_EE17_M_realloc_insertIJMS2_DoFvvEEEEvN9__gnu_cxx17__normal_iteratorIPS5_S7_EEDpOT_>
  403ee4:	c7 44 24 48 01 00 00 	movl   $0x1,0x48(%rsp)
  403eeb:	00
  403eec:	8b 7b 18             	mov    0x18(%rbx),%edi
  403eef:	48 8d 4c 24 48       	lea    0x48(%rsp),%rcx
  403ef4:	be 01 00 00 00       	mov    $0x1,%esi
  403ef9:	ba 02 00 00 00       	mov    $0x2,%edx
  403efe:	41 b8 04 00 00 00    	mov    $0x4,%r8d
  403f04:	e8 e7 e3 ff ff       	callq  4022f0 <setsockopt@plt>
  403f09:	83 f8 ff             	cmp    $0xffffffff,%eax
  403f0c:	74 51                	je     403f5f <_ZN4HTTP6Server12CreateServerEv+0xef>
  403f0e:	66 c7 44 24 48 02 00 	movw   $0x2,0x48(%rsp)
  403f15:	0f b7 43 0c          	movzwl 0xc(%rbx),%eax
  403f19:	66 c1 c0 08          	rol    $0x8,%ax
  403f1d:	66 89 44 24 4a       	mov    %ax,0x4a(%rsp)
  403f22:	c7 44 24 4c 00 00 00 	movl   $0x0,0x4c(%rsp)
  403f29:	00
  403f2a:	8b 7b 18             	mov    0x18(%rbx),%edi
  403f2d:	48 8d 74 24 48       	lea    0x48(%rsp),%rsi
  403f32:	ba 10 00 00 00       	mov    $0x10,%edx
  403f37:	e8 04 e1 ff ff       	callq  402040 <bind@plt>
  403f3c:	83 f8 ff             	cmp    $0xffffffff,%eax
  403f3f:	74 25                	je     403f66 <_ZN4HTTP6Server12CreateServerEv+0xf6>
  403f41:	8b 33                	mov    (%rbx),%esi
  403f43:	8b 7b 18             	mov    0x18(%rbx),%edi
  403f46:	e8 75 e2 ff ff       	callq  4021c0 <listen@plt>
  403f4b:	89 c1                	mov    %eax,%ecx
  403f4d:	b0 01                	mov    $0x1,%al
  403f4f:	83 f9 ff             	cmp    $0xffffffff,%ecx
  403f52:	0f 85 39 02 00 00    	jne    404191 <_ZN4HTTP6Server12CreateServerEv+0x321>
  403f58:	bd 01 00 00 00       	mov    $0x1,%ebp
  403f5d:	eb 28                	jmp    403f87 <_ZN4HTTP6Server12CreateServerEv+0x117>
  403f5f:	bd 06 00 00 00       	mov    $0x6,%ebp
  403f64:	eb 21                	jmp    403f87 <_ZN4HTTP6Server12CreateServerEv+0x117>
  403f66:	e8 c5 e0 ff ff       	callq  402030 <__errno_location@plt>
  403f6b:	8b 00                	mov    (%rax),%eax
  403f6d:	31 c9                	xor    %ecx,%ecx
  403f6f:	83 f8 0d             	cmp    $0xd,%eax
  403f72:	0f 94 c1             	sete   %cl
  403f75:	ba 04 00 00 00       	mov    $0x4,%edx
  403f7a:	29 ca                	sub    %ecx,%edx
  403f7c:	83 f8 62             	cmp    $0x62,%eax
  403f7f:	bd 02 00 00 00       	mov    $0x2,%ebp
  403f84:	0f 45 ea             	cmovne %edx,%ebp
  403f87:	48 8d 7c 24 48       	lea    0x48(%rsp),%rdi
  403f8c:	e8 bf e1 ff ff       	callq  402150 <_ZNSt7__cxx1118basic_stringstreamIcSt11char_traitsIcESaIcEEC1Ev@plt>
  403f91:	48 8d 5c 24 58       	lea    0x58(%rsp),%rbx
  403f96:	be c9 61 40 00       	mov    $0x4061c9,%esi
  403f9b:	ba 20 00 00 00       	mov    $0x20,%edx
  403fa0:	48 89 df             	mov    %rbx,%rdi
  403fa3:	e8 28 e2 ff ff       	callq  4021d0 <_ZSt16__ostream_insertIcSt11char_traitsIcEERSt13basic_ostreamIT_T0_ES6_PKS3_l@plt>
  403fa8:	48 89 df             	mov    %rbx,%rdi
  403fab:	89 ee                	mov    %ebp,%esi
  403fad:	e8 7e 12 00 00       	callq  405230 <_ZlsRSoN4HTTP17ServerLaunchErrorE>
  403fb2:	4c 8d 74 24 38       	lea    0x38(%rsp),%r14
  403fb7:	4c 89 74 24 28       	mov    %r14,0x28(%rsp)
  403fbc:	48 c7 44 24 08 18 00 	movq   $0x18,0x8(%rsp)
  403fc3:	00 00
  403fc5:	48 8d 7c 24 28       	lea    0x28(%rsp),%rdi
  403fca:	48 8d 74 24 08       	lea    0x8(%rsp),%rsi
  403fcf:	31 d2                	xor    %edx,%edx
  403fd1:	e8 2a e3 ff ff       	callq  402300 <_ZNSt7__cxx1112basic_stringIcSt11char_traitsIcESaIcEE9_M_createERmm@plt>
  403fd6:	48 89 44 24 28       	mov    %rax,0x28(%rsp)
  403fdb:	48 8b 4c 24 08       	mov    0x8(%rsp),%rcx
  403fe0:	48 89 4c 24 38       	mov    %rcx,0x38(%rsp)
  403fe5:	0f 10 05 98 21 00 00 	movups 0x2198(%rip),%xmm0        # 406184 <_ZTINSt6thread11_State_implINS_8_InvokerISt5tupleIJMN4HTTP6ClientEFvvEPS4_EEEEEE+0x34>
  403fec:	0f 11 00             	movups %xmm0,(%rax)
  403fef:	48 ba 70 74 43 6c 69 	movabs $0x746e65696c437470,%rdx
  403ff6:	65 6e 74
  403ff9:	48 89 50 10          	mov    %rdx,0x10(%rax)
  403ffd:	48 89 4c 24 30       	mov    %rcx,0x30(%rsp)
  404002:	48 8b 44 24 28       	mov    0x28(%rsp),%rax
  404007:	c6 04 08 00          	movb   $0x0,(%rax,%rcx,1)
  40400b:	48 8d 6c 24 18       	lea    0x18(%rsp),%rbp
  404010:	48 89 6c 24 08       	mov    %rbp,0x8(%rsp)
  404015:	48 c7 44 24 10 00 00 	movq   $0x0,0x10(%rsp)
  40401c:	00 00
  40401e:	c6 44 24 18 00       	movb   $0x0,0x18(%rsp)
  404023:	4c 8b 84 24 88 00 00 	mov    0x88(%rsp),%r8
  40402a:	00
  40402b:	4d 85 c0             	test   %r8,%r8
  40402e:	74 25                	je     404055 <_ZN4HTTP6Server12CreateServerEv+0x1e5>
  404030:	48 8b 44 24 78       	mov    0x78(%rsp),%rax
  404035:	48 8b 8c 24 80 00 00 	mov    0x80(%rsp),%rcx
  40403c:	00
  40403d:	49 39 c0             	cmp    %rax,%r8
  404040:	76 27                	jbe    404069 <_ZN4HTTP6Server12CreateServerEv+0x1f9>
  404042:	49 29 c8             	sub    %rcx,%r8
  404045:	48 8d 7c 24 08       	lea    0x8(%rsp),%rdi
  40404a:	31 f6                	xor    %esi,%esi
  40404c:	31 d2                	xor    %edx,%edx
  40404e:	e8 0d e2 ff ff       	callq  402260 <_ZNSt7__cxx1112basic_stringIcSt11char_traitsIcESaIcEE10_M_replaceEmmPKcm@plt>
  404053:	eb 28                	jmp    40407d <_ZN4HTTP6Server12CreateServerEv+0x20d>
  404055:	48 8d b4 24 a8 00 00 	lea    0xa8(%rsp),%rsi
  40405c:	00
  40405d:	48 8d 7c 24 08       	lea    0x8(%rsp),%rdi
  404062:	e8 a9 e0 ff ff       	callq  402110 <_ZNSt7__cxx1112basic_stringIcSt11char_traitsIcESaIcEE9_M_assignERKS4_@plt>
  404067:	eb 14                	jmp    40407d <_ZN4HTTP6Server12CreateServerEv+0x20d>
  404069:	48 29 c8             	sub    %rcx,%rax
  40406c:	48 8d 7c 24 08       	lea    0x8(%rsp),%rdi
  404071:	31 f6                	xor    %esi,%esi
  404073:	31 d2                	xor    %edx,%edx
  404075:	49 89 c0             	mov    %rax,%r8
  404078:	e8 e3 e1 ff ff       	callq  402260 <_ZNSt7__cxx1112basic_stringIcSt11char_traitsIcESaIcEE10_M_replaceEmmPKcm@plt>
  40407d:	bf c0 91 40 00       	mov    $0x4091c0,%edi
  404082:	be 59 62 40 00       	mov    $0x406259,%esi
  404087:	ba 19 00 00 00       	mov    $0x19,%edx
  40408c:	e8 3f e1 ff ff       	callq  4021d0 <_ZSt16__ostream_insertIcSt11char_traitsIcEERSt13basic_ostreamIT_T0_ES6_PKS3_l@plt>
  404091:	48 8b 74 24 28       	mov    0x28(%rsp),%rsi
  404096:	48 8b 54 24 30       	mov    0x30(%rsp),%rdx
  40409b:	bf c0 91 40 00       	mov    $0x4091c0,%edi
  4040a0:	e8 2b e1 ff ff       	callq  4021d0 <_ZSt16__ostream_insertIcSt11char_traitsIcEERSt13basic_ostreamIT_T0_ES6_PKS3_l@plt>
  4040a5:	48 89 c3             	mov    %rax,%rbx
  4040a8:	be 73 62 40 00       	mov    $0x406273,%esi
  4040ad:	ba 0b 00 00 00       	mov    $0xb,%edx
  4040b2:	48 89 c7             	mov    %rax,%rdi
  4040b5:	e8 16 e1 ff ff       	callq  4021d0 <_ZSt16__ostream_insertIcSt11char_traitsIcEERSt13basic_ostreamIT_T0_ES6_PKS3_l@plt>
  4040ba:	48 8b 74 24 08       	mov    0x8(%rsp),%rsi
  4040bf:	48 8b 54 24 10       	mov    0x10(%rsp),%rdx
  4040c4:	48 89 df             	mov    %rbx,%rdi
  4040c7:	e8 04 e1 ff ff       	callq  4021d0 <_ZSt16__ostream_insertIcSt11char_traitsIcEERSt13basic_ostreamIT_T0_ES6_PKS3_l@plt>
  4040cc:	be 5d 60 40 00       	mov    $0x40605d,%esi
  4040d1:	ba 05 00 00 00       	mov    $0x5,%edx
  4040d6:	48 89 c7             	mov    %rax,%rdi
  4040d9:	e8 f2 e0 ff ff       	callq  4021d0 <_ZSt16__ostream_insertIcSt11char_traitsIcEERSt13basic_ostreamIT_T0_ES6_PKS3_l@plt>
  4040de:	48 8b 7c 24 08       	mov    0x8(%rsp),%rdi
  4040e3:	48 39 ef             	cmp    %rbp,%rdi
  4040e6:	74 05                	je     4040ed <_ZN4HTTP6Server12CreateServerEv+0x27d>
  4040e8:	e8 b3 e0 ff ff       	callq  4021a0 <_ZdlPv@plt>
  4040ed:	48 8b 7c 24 28       	mov    0x28(%rsp),%rdi
  4040f2:	4c 39 f7             	cmp    %r14,%rdi
  4040f5:	74 05                	je     4040fc <_ZN4HTTP6Server12CreateServerEv+0x28c>
  4040f7:	e8 a4 e0 ff ff       	callq  4021a0 <_ZdlPv@plt>
  4040fc:	48 8b 05 fd 49 00 00 	mov    0x49fd(%rip),%rax        # 408b00 <_ZTTNSt7__cxx1118basic_stringstreamIcSt11char_traitsIcESaIcEEE@@GLIBCXX_3.4.21>
  404103:	48 89 44 24 48       	mov    %rax,0x48(%rsp)
  404108:	48 8b 0d 31 4a 00 00 	mov    0x4a31(%rip),%rcx        # 408b40 <_ZTTNSt7__cxx1118basic_stringstreamIcSt11char_traitsIcESaIcEEE@@GLIBCXX_3.4.21+0x40>
  40410f:	48 8b 40 e8          	mov    -0x18(%rax),%rax
  404113:	48 89 4c 04 48       	mov    %rcx,0x48(%rsp,%rax,1)
  404118:	48 8b 05 29 4a 00 00 	mov    0x4a29(%rip),%rax        # 408b48 <_ZTTNSt7__cxx1118basic_stringstreamIcSt11char_traitsIcESaIcEEE@@GLIBCXX_3.4.21+0x48>
  40411f:	48 89 44 24 58       	mov    %rax,0x58(%rsp)
  404124:	48 c7 44 24 60 30 8d 	movq   $0x408d30,0x60(%rsp)
  40412b:	40 00
  40412d:	48 8b bc 24 a8 00 00 	mov    0xa8(%rsp),%rdi
  404134:	00
  404135:	48 8d 84 24 b8 00 00 	lea    0xb8(%rsp),%rax
  40413c:	00
  40413d:	48 39 c7             	cmp    %rax,%rdi
  404140:	74 05                	je     404147 <_ZN4HTTP6Server12CreateServerEv+0x2d7>
  404142:	e8 59 e0 ff ff       	callq  4021a0 <_ZdlPv@plt>
  404147:	48 c7 44 24 60 60 8b 	movq   $0x408b60,0x60(%rsp)
  40414e:	40 00
  404150:	48 8d bc 24 98 00 00 	lea    0x98(%rsp),%rdi
  404157:	00
  404158:	e8 93 e0 ff ff       	callq  4021f0 <_ZNSt6localeD1Ev@plt>
  40415d:	48 8b 05 ac 49 00 00 	mov    0x49ac(%rip),%rax        # 408b10 <_ZTTNSt7__cxx1118basic_stringstreamIcSt11char_traitsIcESaIcEEE@@GLIBCXX_3.4.21+0x10>
  404164:	48 89 44 24 48       	mov    %rax,0x48(%rsp)
  404169:	48 8b 0d a8 49 00 00 	mov    0x49a8(%rip),%rcx        # 408b18 <_ZTTNSt7__cxx1118basic_stringstreamIcSt11char_traitsIcESaIcEEE@@GLIBCXX_3.4.21+0x18>
  404170:	48 8b 40 e8          	mov    -0x18(%rax),%rax
  404174:	48 89 4c 04 48       	mov    %rcx,0x48(%rsp,%rax,1)
  404179:	48 c7 44 24 50 00 00 	movq   $0x0,0x50(%rsp)
  404180:	00 00
  404182:	48 8d bc 24 c8 00 00 	lea    0xc8(%rsp),%rdi
  404189:	00
  40418a:	e8 f1 de ff ff       	callq  402080 <_ZNSt8ios_baseD2Ev@plt>
  40418f:	31 c0                	xor    %eax,%eax
  404191:	48 81 c4 d0 01 00 00 	add    $0x1d0,%rsp
  404198:	5b                   	pop    %rbx
  404199:	41 5e                	pop    %r14
  40419b:	5d                   	pop    %rbp
  40419c:	c3                   	retq
  40419d:	48 89 c7             	mov    %rax,%rdi
  4041a0:	e8 fb e7 ff ff       	callq  4029a0 <__clang_call_terminate>
  4041a5:	eb 12                	jmp    4041b9 <_ZN4HTTP6Server12CreateServerEv+0x349>
  4041a7:	48 89 c3             	mov    %rax,%rbx
  4041aa:	eb 2e                	jmp    4041da <_ZN4HTTP6Server12CreateServerEv+0x36a>
  4041ac:	48 89 c7             	mov    %rax,%rdi
  4041af:	e8 ec e7 ff ff       	callq  4029a0 <__clang_call_terminate>
  4041b4:	48 89 c3             	mov    %rax,%rbx
  4041b7:	eb 21                	jmp    4041da <_ZN4HTTP6Server12CreateServerEv+0x36a>
  4041b9:	48 89 c3             	mov    %rax,%rbx
  4041bc:	48 8b 7c 24 08       	mov    0x8(%rsp),%rdi
  4041c1:	48 39 ef             	cmp    %rbp,%rdi
  4041c4:	74 05                	je     4041cb <_ZN4HTTP6Server12CreateServerEv+0x35b>
  4041c6:	e8 d5 df ff ff       	callq  4021a0 <_ZdlPv@plt>
  4041cb:	48 8b 7c 24 28       	mov    0x28(%rsp),%rdi
  4041d0:	4c 39 f7             	cmp    %r14,%rdi
  4041d3:	74 05                	je     4041da <_ZN4HTTP6Server12CreateServerEv+0x36a>
  4041d5:	e8 c6 df ff ff       	callq  4021a0 <_ZdlPv@plt>
  4041da:	48 8b 05 1f 49 00 00 	mov    0x491f(%rip),%rax        # 408b00 <_ZTTNSt7__cxx1118basic_stringstreamIcSt11char_traitsIcESaIcEEE@@GLIBCXX_3.4.21>
  4041e1:	48 89 44 24 48       	mov    %rax,0x48(%rsp)
  4041e6:	48 8b 0d 53 49 00 00 	mov    0x4953(%rip),%rcx        # 408b40 <_ZTTNSt7__cxx1118basic_stringstreamIcSt11char_traitsIcESaIcEEE@@GLIBCXX_3.4.21+0x40>
  4041ed:	48 8b 40 e8          	mov    -0x18(%rax),%rax
  4041f1:	48 89 4c 04 48       	mov    %rcx,0x48(%rsp,%rax,1)
  4041f6:	48 8b 05 4b 49 00 00 	mov    0x494b(%rip),%rax        # 408b48 <_ZTTNSt7__cxx1118basic_stringstreamIcSt11char_traitsIcESaIcEEE@@GLIBCXX_3.4.21+0x48>
  4041fd:	48 89 44 24 58       	mov    %rax,0x58(%rsp)
  404202:	48 c7 44 24 60 30 8d 	movq   $0x408d30,0x60(%rsp)
  404209:	40 00
  40420b:	48 8b bc 24 a8 00 00 	mov    0xa8(%rsp),%rdi
  404212:	00
  404213:	48 8d 84 24 b8 00 00 	lea    0xb8(%rsp),%rax
  40421a:	00
  40421b:	48 39 c7             	cmp    %rax,%rdi
  40421e:	74 05                	je     404225 <_ZN4HTTP6Server12CreateServerEv+0x3b5>
  404220:	e8 7b df ff ff       	callq  4021a0 <_ZdlPv@plt>
  404225:	48 c7 44 24 60 60 8b 	movq   $0x408b60,0x60(%rsp)
  40422c:	40 00
  40422e:	48 8d bc 24 98 00 00 	lea    0x98(%rsp),%rdi
  404235:	00
  404236:	e8 b5 df ff ff       	callq  4021f0 <_ZNSt6localeD1Ev@plt>
  40423b:	48 8b 05 ce 48 00 00 	mov    0x48ce(%rip),%rax        # 408b10 <_ZTTNSt7__cxx1118basic_stringstreamIcSt11char_traitsIcESaIcEEE@@GLIBCXX_3.4.21+0x10>
  404242:	48 89 44 24 48       	mov    %rax,0x48(%rsp)
  404247:	48 8b 0d ca 48 00 00 	mov    0x48ca(%rip),%rcx        # 408b18 <_ZTTNSt7__cxx1118basic_stringstreamIcSt11char_traitsIcESaIcEEE@@GLIBCXX_3.4.21+0x18>
  40424e:	48 8b 40 e8          	mov    -0x18(%rax),%rax
  404252:	48 89 4c 04 48       	mov    %rcx,0x48(%rsp,%rax,1)
  404257:	48 c7 44 24 50 00 00 	movq   $0x0,0x50(%rsp)
  40425e:	00 00
  404260:	48 8d bc 24 c8 00 00 	lea    0xc8(%rsp),%rdi
  404267:	00
  404268:	e8 13 de ff ff       	callq  402080 <_ZNSt8ios_baseD2Ev@plt>
  40426d:	48 89 df             	mov    %rbx,%rdi
  404270:	e8 2b e7 ff ff       	callq  4029a0 <__clang_call_terminate>
  404275:	66 2e 0f 1f 84 00 00 	nopw   %cs:0x0(%rax,%rax,1)
  40427c:	00 00 00
  40427f:	90                   	nop

0000000000404280 <_ZN4HTTP6Server17HandlePollFailureEv>:
  404280:	41 57                	push   %r15
  404282:	41 56                	push   %r14
  404284:	53                   	push   %rbx
  404285:	48 83 ec 50          	sub    $0x50,%rsp
  404289:	4c 8d 7c 24 40       	lea    0x40(%rsp),%r15
  40428e:	4c 89 7c 24 30       	mov    %r15,0x30(%rsp)
  404293:	48 c7 44 24 08 1d 00 	movq   $0x1d,0x8(%rsp)
  40429a:	00 00
  40429c:	48 8d 7c 24 30       	lea    0x30(%rsp),%rdi
  4042a1:	48 8d 74 24 08       	lea    0x8(%rsp),%rsi
  4042a6:	31 d2                	xor    %edx,%edx
  4042a8:	e8 53 e0 ff ff       	callq  402300 <_ZNSt7__cxx1112basic_stringIcSt11char_traitsIcESaIcEE9_M_createERmm@plt>
  4042ad:	48 89 44 24 30       	mov    %rax,0x30(%rsp)
  4042b2:	48 8b 4c 24 08       	mov    0x8(%rsp),%rcx
  4042b7:	48 89 4c 24 40       	mov    %rcx,0x40(%rsp)
  4042bc:	0f 10 05 34 1f 00 00 	movups 0x1f34(%rip),%xmm0        # 4061f7 <_ZTINSt6thread11_State_implINS_8_InvokerISt5tupleIJMN4HTTP6ClientEFvvEPS4_EEEEEE+0xa7>
  4042c3:	0f 11 40 0d          	movups %xmm0,0xd(%rax)
  4042c7:	0f 10 05 1c 1f 00 00 	movups 0x1f1c(%rip),%xmm0        # 4061ea <_ZTINSt6thread11_State_implINS_8_InvokerISt5tupleIJMN4HTTP6ClientEFvvEPS4_EEEEEE+0x9a>
  4042ce:	0f 11 00             	movups %xmm0,(%rax)
  4042d1:	48 89 4c 24 38       	mov    %rcx,0x38(%rsp)
  4042d6:	48 8b 44 24 30       	mov    0x30(%rsp),%rax
  4042db:	c6 04 08 00          	movb   $0x0,(%rax,%rcx,1)
  4042df:	48 8d 5c 24 18       	lea    0x18(%rsp),%rbx
  4042e4:	48 89 5c 24 08       	mov    %rbx,0x8(%rsp)
  4042e9:	48 c7 44 24 28 2c 00 	movq   $0x2c,0x28(%rsp)
  4042f0:	00 00
  4042f2:	48 8d 7c 24 08       	lea    0x8(%rsp),%rdi
  4042f7:	48 8d 74 24 28       	lea    0x28(%rsp),%rsi
  4042fc:	31 d2                	xor    %edx,%edx
  4042fe:	e8 fd df ff ff       	callq  402300 <_ZNSt7__cxx1112basic_stringIcSt11char_traitsIcESaIcEE9_M_createERmm@plt>
  404303:	48 89 44 24 08       	mov    %rax,0x8(%rsp)
  404308:	48 8b 4c 24 28       	mov    0x28(%rsp),%rcx
  40430d:	48 89 4c 24 18       	mov    %rcx,0x18(%rsp)
  404312:	0f 10 05 0b 1f 00 00 	movups 0x1f0b(%rip),%xmm0        # 406224 <_ZTINSt6thread11_State_implINS_8_InvokerISt5tupleIJMN4HTTP6ClientEFvvEPS4_EEEEEE+0xd4>
  404319:	0f 11 40 1c          	movups %xmm0,0x1c(%rax)
  40431d:	0f 10 05 f4 1e 00 00 	movups 0x1ef4(%rip),%xmm0        # 406218 <_ZTINSt6thread11_State_implINS_8_InvokerISt5tupleIJMN4HTTP6ClientEFvvEPS4_EEEEEE+0xc8>
  404324:	0f 11 40 10          	movups %xmm0,0x10(%rax)
  404328:	0f 10 05 d9 1e 00 00 	movups 0x1ed9(%rip),%xmm0        # 406208 <_ZTINSt6thread11_State_implINS_8_InvokerISt5tupleIJMN4HTTP6ClientEFvvEPS4_EEEEEE+0xb8>
  40432f:	0f 11 00             	movups %xmm0,(%rax)
  404332:	48 89 4c 24 10       	mov    %rcx,0x10(%rsp)
  404337:	c6 04 08 00          	movb   $0x0,(%rax,%rcx,1)
  40433b:	48 8d 7c 24 30       	lea    0x30(%rsp),%rdi
  404340:	48 8d 74 24 08       	lea    0x8(%rsp),%rsi
  404345:	e8 f6 09 00 00       	callq  404d40 <_ZN6Logger6SevereERKNSt7__cxx1112basic_stringIcSt11char_traitsIcESaIcEEES7_>
  40434a:	48 8d 7c 24 08       	lea    0x8(%rsp),%rdi
  40434f:	e8 7c dd ff ff       	callq  4020d0 <_ZNSt7__cxx1112basic_stringIcSt11char_traitsIcESaIcEED2Ev@plt>
  404354:	48 8d 7c 24 30       	lea    0x30(%rsp),%rdi
  404359:	e8 72 dd ff ff       	callq  4020d0 <_ZNSt7__cxx1112basic_stringIcSt11char_traitsIcESaIcEED2Ev@plt>
  40435e:	e8 fd dc ff ff       	callq  402060 <_ZSt9terminatev@plt>
  404363:	49 89 c6             	mov    %rax,%r14
  404366:	48 8b 7c 24 08       	mov    0x8(%rsp),%rdi
  40436b:	48 39 df             	cmp    %rbx,%rdi
  40436e:	75 12                	jne    404382 <_ZN4HTTP6Server17HandlePollFailureEv+0x102>
  404370:	48 8b 7c 24 30       	mov    0x30(%rsp),%rdi
  404375:	4c 39 ff             	cmp    %r15,%rdi
  404378:	75 26                	jne    4043a0 <_ZN4HTTP6Server17HandlePollFailureEv+0x120>
  40437a:	4c 89 f7             	mov    %r14,%rdi
  40437d:	e8 5e df ff ff       	callq  4022e0 <_Unwind_Resume@plt>
  404382:	e8 19 de ff ff       	callq  4021a0 <_ZdlPv@plt>
  404387:	48 8b 7c 24 30       	mov    0x30(%rsp),%rdi
  40438c:	4c 39 ff             	cmp    %r15,%rdi
  40438f:	74 e9                	je     40437a <_ZN4HTTP6Server17HandlePollFailureEv+0xfa>
  404391:	eb 0d                	jmp    4043a0 <_ZN4HTTP6Server17HandlePollFailureEv+0x120>
  404393:	49 89 c6             	mov    %rax,%r14
  404396:	48 8b 7c 24 30       	mov    0x30(%rsp),%rdi
  40439b:	4c 39 ff             	cmp    %r15,%rdi
  40439e:	74 da                	je     40437a <_ZN4HTTP6Server17HandlePollFailureEv+0xfa>
  4043a0:	e8 fb dd ff ff       	callq  4021a0 <_ZdlPv@plt>
  4043a5:	4c 89 f7             	mov    %r14,%rdi
  4043a8:	e8 33 df ff ff       	callq  4022e0 <_Unwind_Resume@plt>
  4043ad:	48 89 c7             	mov    %rax,%rdi
  4043b0:	e8 2b df ff ff       	callq  4022e0 <_Unwind_Resume@plt>
  4043b5:	66 2e 0f 1f 84 00 00 	nopw   %cs:0x0(%rax,%rax,1)
  4043bc:	00 00 00
  4043bf:	90                   	nop

00000000004043c0 <_ZN4HTTP6Server12AcceptClientEv>:
  4043c0:	55                   	push   %rbp
  4043c1:	41 57                	push   %r15
  4043c3:	41 56                	push   %r14
  4043c5:	53                   	push   %rbx
  4043c6:	48 83 ec 48          	sub    $0x48,%rsp
  4043ca:	48 89 fb             	mov    %rdi,%rbx
  4043cd:	8b 7f 18             	mov    0x18(%rdi),%edi
  4043d0:	31 f6                	xor    %esi,%esi
  4043d2:	31 d2                	xor    %edx,%edx
  4043d4:	e8 97 dc ff ff       	callq  402070 <accept@plt>
  4043d9:	83 f8 ff             	cmp    $0xffffffff,%eax
  4043dc:	74 66                	je     404444 <_ZN4HTTP6Server12AcceptClientEv+0x84>
  4043de:	41 89 c7             	mov    %eax,%r15d
  4043e1:	4c 8d 73 38          	lea    0x38(%rbx),%r14
  4043e5:	b8 90 22 40 00       	mov    $0x402290,%eax
  4043ea:	48 85 c0             	test   %rax,%rax
  4043ed:	74 10                	je     4043ff <_ZN4HTTP6Server12AcceptClientEv+0x3f>
  4043ef:	4c 89 f7             	mov    %r14,%rdi
  4043f2:	e8 29 de ff ff       	callq  402220 <pthread_mutex_lock@plt>
  4043f7:	85 c0                	test   %eax,%eax
  4043f9:	0f 85 eb 01 00 00    	jne    4045ea <_ZN4HTTP6Server12AcceptClientEv+0x22a>
  4043ff:	bf 60 00 00 00       	mov    $0x60,%edi
  404404:	e8 a7 dd ff ff       	callq  4021b0 <_Znwm@plt>
  404409:	48 89 c5             	mov    %rax,%rbp
  40440c:	48 89 c7             	mov    %rax,%rdi
  40440f:	48 89 de             	mov    %rbx,%rsi
  404412:	44 89 fa             	mov    %r15d,%edx
  404415:	e8 26 e6 ff ff       	callq  402a40 <_ZN4HTTP6ClientC1EPNS_6ServerEi>
  40441a:	48 89 2c 24          	mov    %rbp,(%rsp)
  40441e:	48 8b 73 68          	mov    0x68(%rbx),%rsi
  404422:	48 3b 73 70          	cmp    0x70(%rbx),%rsi
  404426:	0f 84 3a 01 00 00    	je     404566 <_ZN4HTTP6Server12AcceptClientEv+0x1a6>
  40442c:	48 c7 04 24 00 00 00 	movq   $0x0,(%rsp)
  404433:	00
  404434:	48 89 2e             	mov    %rbp,(%rsi)
  404437:	48 83 c6 08          	add    $0x8,%rsi
  40443b:	48 89 73 68          	mov    %rsi,0x68(%rbx)
  40443f:	e9 31 01 00 00       	jmpq   404575 <_ZN4HTTP6Server12AcceptClientEv+0x1b5>
  404444:	4c 8d 74 24 10       	lea    0x10(%rsp),%r14
  404449:	4c 89 34 24          	mov    %r14,(%rsp)
  40444d:	48 c7 44 24 20 18 00 	movq   $0x18,0x20(%rsp)
  404454:	00 00
  404456:	48 89 e7             	mov    %rsp,%rdi
  404459:	48 8d 74 24 20       	lea    0x20(%rsp),%rsi
  40445e:	31 d2                	xor    %edx,%edx
  404460:	e8 9b de ff ff       	callq  402300 <_ZNSt7__cxx1112basic_stringIcSt11char_traitsIcESaIcEE9_M_createERmm@plt>
  404465:	48 89 04 24          	mov    %rax,(%rsp)
  404469:	48 8b 4c 24 20       	mov    0x20(%rsp),%rcx
  40446e:	48 89 4c 24 10       	mov    %rcx,0x10(%rsp)
  404473:	0f 10 05 0a 1d 00 00 	movups 0x1d0a(%rip),%xmm0        # 406184 <_ZTINSt6thread11_State_implINS_8_InvokerISt5tupleIJMN4HTTP6ClientEFvvEPS4_EEEEEE+0x34>
  40447a:	0f 11 00             	movups %xmm0,(%rax)
  40447d:	48 ba 70 74 43 6c 69 	movabs $0x746e65696c437470,%rdx
  404484:	65 6e 74
  404487:	48 89 50 10          	mov    %rdx,0x10(%rax)
  40448b:	48 89 4c 24 08       	mov    %rcx,0x8(%rsp)
  404490:	48 8b 04 24          	mov    (%rsp),%rax
  404494:	c6 04 08 00          	movb   $0x0,(%rax,%rcx,1)
  404498:	48 8d 6c 24 30       	lea    0x30(%rsp),%rbp
  40449d:	48 89 6c 24 20       	mov    %rbp,0x20(%rsp)
  4044a2:	48 c7 44 24 40 10 00 	movq   $0x10,0x40(%rsp)
  4044a9:	00 00
  4044ab:	48 8d 7c 24 20       	lea    0x20(%rsp),%rdi
  4044b0:	48 8d 74 24 40       	lea    0x40(%rsp),%rsi
  4044b5:	31 d2                	xor    %edx,%edx
  4044b7:	e8 44 de ff ff       	callq  402300 <_ZNSt7__cxx1112basic_stringIcSt11char_traitsIcESaIcEE9_M_createERmm@plt>
  4044bc:	48 89 44 24 20       	mov    %rax,0x20(%rsp)
  4044c1:	48 8b 4c 24 40       	mov    0x40(%rsp),%rcx
  4044c6:	48 89 4c 24 30       	mov    %rcx,0x30(%rsp)
  4044cb:	0f 10 05 cb 1c 00 00 	movups 0x1ccb(%rip),%xmm0        # 40619d <_ZTINSt6thread11_State_implINS_8_InvokerISt5tupleIJMN4HTTP6ClientEFvvEPS4_EEEEEE+0x4d>
  4044d2:	0f 11 00             	movups %xmm0,(%rax)
  4044d5:	48 89 4c 24 28       	mov    %rcx,0x28(%rsp)
  4044da:	48 8b 44 24 20       	mov    0x20(%rsp),%rax
  4044df:	c6 04 08 00          	movb   $0x0,(%rax,%rcx,1)
  4044e3:	bf c0 91 40 00       	mov    $0x4091c0,%edi
  4044e8:	be 59 62 40 00       	mov    $0x406259,%esi
  4044ed:	ba 19 00 00 00       	mov    $0x19,%edx
  4044f2:	e8 d9 dc ff ff       	callq  4021d0 <_ZSt16__ostream_insertIcSt11char_traitsIcEERSt13basic_ostreamIT_T0_ES6_PKS3_l@plt>
  4044f7:	48 8b 34 24          	mov    (%rsp),%rsi
  4044fb:	48 8b 54 24 08       	mov    0x8(%rsp),%rdx
  404500:	bf c0 91 40 00       	mov    $0x4091c0,%edi
  404505:	e8 c6 dc ff ff       	callq  4021d0 <_ZSt16__ostream_insertIcSt11char_traitsIcEERSt13basic_ostreamIT_T0_ES6_PKS3_l@plt>
  40450a:	48 89 c3             	mov    %rax,%rbx
  40450d:	be 73 62 40 00       	mov    $0x406273,%esi
  404512:	ba 0b 00 00 00       	mov    $0xb,%edx
  404517:	48 89 c7             	mov    %rax,%rdi
  40451a:	e8 b1 dc ff ff       	callq  4021d0 <_ZSt16__ostream_insertIcSt11char_traitsIcEERSt13basic_ostreamIT_T0_ES6_PKS3_l@plt>
  40451f:	48 8b 74 24 20       	mov    0x20(%rsp),%rsi
  404524:	48 8b 54 24 28       	mov    0x28(%rsp),%rdx
  404529:	48 89 df             	mov    %rbx,%rdi
  40452c:	e8 9f dc ff ff       	callq  4021d0 <_ZSt16__ostream_insertIcSt11char_traitsIcEERSt13basic_ostreamIT_T0_ES6_PKS3_l@plt>
  404531:	be 5d 60 40 00       	mov    $0x40605d,%esi
  404536:	ba 05 00 00 00       	mov    $0x5,%edx
  40453b:	48 89 c7             	mov    %rax,%rdi
  40453e:	e8 8d dc ff ff       	callq  4021d0 <_ZSt16__ostream_insertIcSt11char_traitsIcEERSt13basic_ostreamIT_T0_ES6_PKS3_l@plt>
  404543:	48 8b 7c 24 20       	mov    0x20(%rsp),%rdi
  404548:	48 39 ef             	cmp    %rbp,%rdi
  40454b:	74 05                	je     404552 <_ZN4HTTP6Server12AcceptClientEv+0x192>
  40454d:	e8 4e dc ff ff       	callq  4021a0 <_ZdlPv@plt>
  404552:	48 8b 3c 24          	mov    (%rsp),%rdi
  404556:	4c 39 f7             	cmp    %r14,%rdi
  404559:	0f 84 80 00 00 00    	je     4045df <_ZN4HTTP6Server12AcceptClientEv+0x21f>
  40455f:	e8 3c dc ff ff       	callq  4021a0 <_ZdlPv@plt>
  404564:	eb 79                	jmp    4045df <_ZN4HTTP6Server12AcceptClientEv+0x21f>
  404566:	48 83 c3 60          	add    $0x60,%rbx
  40456a:	48 89 e2             	mov    %rsp,%rdx
  40456d:	48 89 df             	mov    %rbx,%rdi
  404570:	e8 ab 08 00 00       	callq  404e20 <_ZNSt6vectorISt10unique_ptrIN4HTTP6ClientESt14default_deleteIS2_EESaIS5_EE17_M_realloc_insertIJS5_EEEvN9__gnu_cxx17__normal_iteratorIPS5_S7_EEDpOT_>
  404575:	48 8b 1c 24          	mov    (%rsp),%rbx
  404579:	48 85 db             	test   %rbx,%rbx
  40457c:	74 4f                	je     4045cd <_ZN4HTTP6Server12AcceptClientEv+0x20d>
  40457e:	48 83 7b 58 00       	cmpq   $0x0,0x58(%rbx)
  404583:	0f 85 b6 00 00 00    	jne    40463f <_ZN4HTTP6Server12AcceptClientEv+0x27f>
  404589:	48 8b 7b 28          	mov    0x28(%rbx),%rdi
  40458d:	48 8d 43 38          	lea    0x38(%rbx),%rax
  404591:	48 39 c7             	cmp    %rax,%rdi
  404594:	74 05                	je     40459b <_ZN4HTTP6Server12AcceptClientEv+0x1db>
  404596:	e8 05 dc ff ff       	callq  4021a0 <_ZdlPv@plt>
  40459b:	48 8b 7b 08          	mov    0x8(%rbx),%rdi
  40459f:	48 8d 43 18          	lea    0x18(%rbx),%rax
  4045a3:	48 39 c7             	cmp    %rax,%rdi
  4045a6:	74 05                	je     4045ad <_ZN4HTTP6Server12AcceptClientEv+0x1ed>
  4045a8:	e8 f3 db ff ff       	callq  4021a0 <_ZdlPv@plt>
  4045ad:	48 8b 2b             	mov    (%rbx),%rbp
  4045b0:	48 85 ed             	test   %rbp,%rbp
  4045b3:	74 10                	je     4045c5 <_ZN4HTTP6Server12AcceptClientEv+0x205>
  4045b5:	48 89 ef             	mov    %rbp,%rdi
  4045b8:	e8 f3 e3 ff ff       	callq  4029b0 <_ZN10ConnectionD1Ev>
  4045bd:	48 89 ef             	mov    %rbp,%rdi
  4045c0:	e8 db db ff ff       	callq  4021a0 <_ZdlPv@plt>
  4045c5:	48 89 df             	mov    %rbx,%rdi
  4045c8:	e8 d3 db ff ff       	callq  4021a0 <_ZdlPv@plt>
  4045cd:	b8 90 22 40 00       	mov    $0x402290,%eax
  4045d2:	48 85 c0             	test   %rax,%rax
  4045d5:	74 08                	je     4045df <_ZN4HTTP6Server12AcceptClientEv+0x21f>
  4045d7:	4c 89 f7             	mov    %r14,%rdi
  4045da:	e8 81 db ff ff       	callq  402160 <pthread_mutex_unlock@plt>
  4045df:	48 83 c4 48          	add    $0x48,%rsp
  4045e3:	5b                   	pop    %rbx
  4045e4:	41 5e                	pop    %r14
  4045e6:	41 5f                	pop    %r15
  4045e8:	5d                   	pop    %rbp
  4045e9:	c3                   	retq
  4045ea:	89 c7                	mov    %eax,%edi
  4045ec:	e8 3f db ff ff       	callq  402130 <_ZSt20__throw_system_errori@plt>
  4045f1:	48 89 c3             	mov    %rax,%rbx
  4045f4:	4c 8b 34 24          	mov    (%rsp),%r14
  4045f8:	4d 85 f6             	test   %r14,%r14
  4045fb:	0f 84 91 00 00 00    	je     404692 <_ZN4HTTP6Server12AcceptClientEv+0x2d2>
  404601:	49 83 7e 58 00       	cmpq   $0x0,0x58(%r14)
  404606:	75 37                	jne    40463f <_ZN4HTTP6Server12AcceptClientEv+0x27f>
  404608:	49 8b 7e 28          	mov    0x28(%r14),%rdi
  40460c:	49 8d 46 38          	lea    0x38(%r14),%rax
  404610:	48 39 c7             	cmp    %rax,%rdi
  404613:	75 2f                	jne    404644 <_ZN4HTTP6Server12AcceptClientEv+0x284>
  404615:	49 8b 7e 08          	mov    0x8(%r14),%rdi
  404619:	49 8d 46 18          	lea    0x18(%r14),%rax
  40461d:	48 39 c7             	cmp    %rax,%rdi
  404620:	75 34                	jne    404656 <_ZN4HTTP6Server12AcceptClientEv+0x296>
  404622:	49 8b 2e             	mov    (%r14),%rbp
  404625:	48 85 ed             	test   %rbp,%rbp
  404628:	74 10                	je     40463a <_ZN4HTTP6Server12AcceptClientEv+0x27a>
  40462a:	48 89 ef             	mov    %rbp,%rdi
  40462d:	e8 7e e3 ff ff       	callq  4029b0 <_ZN10ConnectionD1Ev>
  404632:	48 89 ef             	mov    %rbp,%rdi
  404635:	e8 66 db ff ff       	callq  4021a0 <_ZdlPv@plt>
  40463a:	4c 89 f7             	mov    %r14,%rdi
  40463d:	eb 4e                	jmp    40468d <_ZN4HTTP6Server12AcceptClientEv+0x2cd>
  40463f:	e8 1c da ff ff       	callq  402060 <_ZSt9terminatev@plt>
  404644:	e8 57 db ff ff       	callq  4021a0 <_ZdlPv@plt>
  404649:	49 8b 7e 08          	mov    0x8(%r14),%rdi
  40464d:	49 8d 46 18          	lea    0x18(%r14),%rax
  404651:	48 39 c7             	cmp    %rax,%rdi
  404654:	74 cc                	je     404622 <_ZN4HTTP6Server12AcceptClientEv+0x262>
  404656:	e8 45 db ff ff       	callq  4021a0 <_ZdlPv@plt>
  40465b:	49 8b 2e             	mov    (%r14),%rbp
  40465e:	48 85 ed             	test   %rbp,%rbp
  404661:	75 c7                	jne    40462a <_ZN4HTTP6Server12AcceptClientEv+0x26a>
  404663:	eb d5                	jmp    40463a <_ZN4HTTP6Server12AcceptClientEv+0x27a>
  404665:	48 89 c3             	mov    %rax,%rbx
  404668:	eb 1a                	jmp    404684 <_ZN4HTTP6Server12AcceptClientEv+0x2c4>
  40466a:	48 89 c7             	mov    %rax,%rdi
  40466d:	e8 6e dc ff ff       	callq  4022e0 <_Unwind_Resume@plt>
  404672:	48 89 c3             	mov    %rax,%rbx
  404675:	48 8b 7c 24 20       	mov    0x20(%rsp),%rdi
  40467a:	48 39 ef             	cmp    %rbp,%rdi
  40467d:	74 05                	je     404684 <_ZN4HTTP6Server12AcceptClientEv+0x2c4>
  40467f:	e8 1c db ff ff       	callq  4021a0 <_ZdlPv@plt>
  404684:	48 8b 3c 24          	mov    (%rsp),%rdi
  404688:	4c 39 f7             	cmp    %r14,%rdi
  40468b:	74 05                	je     404692 <_ZN4HTTP6Server12AcceptClientEv+0x2d2>
  40468d:	e8 0e db ff ff       	callq  4021a0 <_ZdlPv@plt>
  404692:	48 89 df             	mov    %rbx,%rdi
  404695:	e8 46 dc ff ff       	callq  4022e0 <_Unwind_Resume@plt>
  40469a:	66 0f 1f 44 00 00    	nopw   0x0(%rax,%rax,1)

00000000004046a0 <_ZN4HTTP6ServerD1Ev>:
  4046a0:	41 57                	push   %r15
  4046a2:	41 56                	push   %r14
  4046a4:	41 55                	push   %r13
  4046a6:	41 54                	push   %r12
  4046a8:	53                   	push   %rbx
  4046a9:	48 83 ec 10          	sub    $0x10,%rsp
  4046ad:	49 89 ff             	mov    %rdi,%r15
  4046b0:	4c 8d 77 20          	lea    0x20(%rdi),%r14
  4046b4:	48 8b 5f 20          	mov    0x20(%rdi),%rbx
  4046b8:	4c 8b 6f 28          	mov    0x28(%rdi),%r13
  4046bc:	4c 39 eb             	cmp    %r13,%rbx
  4046bf:	74 31                	je     4046f2 <_ZN4HTTP6ServerD1Ev+0x52>
  4046c1:	4c 8d 64 24 08       	lea    0x8(%rsp),%r12
  4046c6:	66 2e 0f 1f 84 00 00 	nopw   %cs:0x0(%rax,%rax,1)
  4046cd:	00 00 00
  4046d0:	4c 89 7c 24 08       	mov    %r15,0x8(%rsp)
  4046d5:	48 83 7b 10 00       	cmpq   $0x0,0x10(%rbx)
  4046da:	0f 84 bb 00 00 00    	je     40479b <_ZN4HTTP6ServerD1Ev+0xfb>
  4046e0:	48 89 df             	mov    %rbx,%rdi
  4046e3:	4c 89 e6             	mov    %r12,%rsi
  4046e6:	ff 53 18             	callq  *0x18(%rbx)
  4046e9:	48 83 c3 20          	add    $0x20,%rbx
  4046ed:	49 39 dd             	cmp    %rbx,%r13
  4046f0:	75 de                	jne    4046d0 <_ZN4HTTP6ServerD1Ev+0x30>
  4046f2:	49 8b 5f 60          	mov    0x60(%r15),%rbx
  4046f6:	4d 8b 67 68          	mov    0x68(%r15),%r12
  4046fa:	4c 39 e3             	cmp    %r12,%rbx
  4046fd:	74 16                	je     404715 <_ZN4HTTP6ServerD1Ev+0x75>
  4046ff:	90                   	nop
  404700:	48 89 df             	mov    %rbx,%rdi
  404703:	e8 c8 05 00 00       	callq  404cd0 <_ZNSt10unique_ptrIN4HTTP6ClientESt14default_deleteIS1_EED2Ev>
  404708:	48 83 c3 08          	add    $0x8,%rbx
  40470c:	49 39 dc             	cmp    %rbx,%r12
  40470f:	75 ef                	jne    404700 <_ZN4HTTP6ServerD1Ev+0x60>
  404711:	49 8b 5f 60          	mov    0x60(%r15),%rbx
  404715:	48 85 db             	test   %rbx,%rbx
  404718:	74 08                	je     404722 <_ZN4HTTP6ServerD1Ev+0x82>
  40471a:	48 89 df             	mov    %rbx,%rdi
  40471d:	e8 7e da ff ff       	callq  4021a0 <_ZdlPv@plt>
  404722:	49 8b 5f 20          	mov    0x20(%r15),%rbx
  404726:	4d 8b 67 28          	mov    0x28(%r15),%r12
  40472a:	4c 39 e3             	cmp    %r12,%rbx
  40472d:	75 4a                	jne    404779 <_ZN4HTTP6ServerD1Ev+0xd9>
  40472f:	48 85 db             	test   %rbx,%rbx
  404732:	74 08                	je     40473c <_ZN4HTTP6ServerD1Ev+0x9c>
  404734:	48 89 df             	mov    %rbx,%rdi
  404737:	e8 64 da ff ff       	callq  4021a0 <_ZdlPv@plt>
  40473c:	49 8b 7f 10          	mov    0x10(%r15),%rdi
  404740:	48 85 ff             	test   %rdi,%rdi
  404743:	74 0b                	je     404750 <_ZN4HTTP6ServerD1Ev+0xb0>
  404745:	48 83 3f 00          	cmpq   $0x0,(%rdi)
  404749:	75 55                	jne    4047a0 <_ZN4HTTP6ServerD1Ev+0x100>
  40474b:	e8 50 da ff ff       	callq  4021a0 <_ZdlPv@plt>
  404750:	49 c7 47 10 00 00 00 	movq   $0x0,0x10(%r15)
  404757:	00
  404758:	48 83 c4 10          	add    $0x10,%rsp
  40475c:	5b                   	pop    %rbx
  40475d:	41 5c                	pop    %r12
  40475f:	41 5d                	pop    %r13
  404761:	41 5e                	pop    %r14
  404763:	41 5f                	pop    %r15
  404765:	c3                   	retq
  404766:	66 2e 0f 1f 84 00 00 	nopw   %cs:0x0(%rax,%rax,1)
  40476d:	00 00 00
  404770:	48 83 c3 20          	add    $0x20,%rbx
  404774:	49 39 dc             	cmp    %rbx,%r12
  404777:	74 18                	je     404791 <_ZN4HTTP6ServerD1Ev+0xf1>
  404779:	48 8b 43 10          	mov    0x10(%rbx),%rax
  40477d:	48 85 c0             	test   %rax,%rax
  404780:	74 ee                	je     404770 <_ZN4HTTP6ServerD1Ev+0xd0>
  404782:	48 89 df             	mov    %rbx,%rdi
  404785:	48 89 de             	mov    %rbx,%rsi
  404788:	ba 03 00 00 00       	mov    $0x3,%edx
  40478d:	ff d0                	callq  *%rax
  40478f:	eb df                	jmp    404770 <_ZN4HTTP6ServerD1Ev+0xd0>
  404791:	49 8b 1e             	mov    (%r14),%rbx
  404794:	48 85 db             	test   %rbx,%rbx
  404797:	75 9b                	jne    404734 <_ZN4HTTP6ServerD1Ev+0x94>
  404799:	eb a1                	jmp    40473c <_ZN4HTTP6ServerD1Ev+0x9c>
  40479b:	e8 00 d9 ff ff       	callq  4020a0 <_ZSt25__throw_bad_function_callv@plt>
  4047a0:	e8 bb d8 ff ff       	callq  402060 <_ZSt9terminatev@plt>
  4047a5:	eb 08                	jmp    4047af <_ZN4HTTP6ServerD1Ev+0x10f>
  4047a7:	48 89 c7             	mov    %rax,%rdi
  4047aa:	e8 f1 e1 ff ff       	callq  4029a0 <__clang_call_terminate>
  4047af:	48 89 c3             	mov    %rax,%rbx
  4047b2:	49 8d 7f 60          	lea    0x60(%r15),%rdi
  4047b6:	e8 55 04 00 00       	callq  404c10 <_ZNSt6vectorISt10unique_ptrIN4HTTP6ClientESt14default_deleteIS2_EESaIS5_EED2Ev>
  4047bb:	4c 89 f7             	mov    %r14,%rdi
  4047be:	e8 9d 04 00 00       	callq  404c60 <_ZNSt6vectorISt8functionIFvPN4HTTP6ServerEEESaIS5_EED2Ev>
  4047c3:	49 83 c7 10          	add    $0x10,%r15
  4047c7:	4c 89 ff             	mov    %r15,%rdi
  4047ca:	e8 11 04 00 00       	callq  404be0 <_ZNSt10unique_ptrISt6threadSt14default_deleteIS0_EED2Ev>
  4047cf:	48 89 df             	mov    %rbx,%rdi
  4047d2:	e8 c9 e1 ff ff       	callq  4029a0 <__clang_call_terminate>
  4047d7:	66 0f 1f 84 00 00 00 	nopw   0x0(%rax,%rax,1)
  4047de:	00 00

00000000004047e0 <_ZNK4HTTP6Server18CheckConfigurationEv>:
  4047e0:	50                   	push   %rax
  4047e1:	83 7f 08 00          	cmpl   $0x0,0x8(%rdi)
  4047e5:	78 02                	js     4047e9 <_ZNK4HTTP6Server18CheckConfigurationEv+0x9>
  4047e7:	58                   	pop    %rax
  4047e8:	c3                   	retq
  4047e9:	bf 10 00 00 00       	mov    $0x10,%edi
  4047ee:	e8 fd d8 ff ff       	callq  4020f0 <__cxa_allocate_exception@plt>
  4047f3:	48 c7 00 e0 62 40 00 	movq   $0x4062e0,(%rax)
  4047fa:	48 c7 40 08 ae 61 40 	movq   $0x4061ae,0x8(%rax)
  404801:	00
  404802:	be b8 62 40 00       	mov    $0x4062b8,%esi
  404807:	ba 10 23 40 00       	mov    $0x402310,%edx
  40480c:	48 89 c7             	mov    %rax,%rdi
  40480f:	e8 ac da ff ff       	callq  4022c0 <__cxa_throw@plt>
  404814:	66 2e 0f 1f 84 00 00 	nopw   %cs:0x0(%rax,%rax,1)
  40481b:	00 00 00
  40481e:	66 90                	xchg   %ax,%ax

0000000000404820 <_ZN4HTTP6Server11CloseSocketEv>:
  404820:	53                   	push   %rbx
  404821:	48 89 fb             	mov    %rdi,%rbx
  404824:	8b 7f 18             	mov    0x18(%rdi),%edi
  404827:	83 ff ff             	cmp    $0xffffffff,%edi
  40482a:	74 0c                	je     404838 <_ZN4HTTP6Server11CloseSocketEv+0x18>
  40482c:	e8 ef da ff ff       	callq  402320 <close@plt>
  404831:	c7 43 18 ff ff ff ff 	movl   $0xffffffff,0x18(%rbx)
  404838:	5b                   	pop    %rbx
  404839:	c3                   	retq
  40483a:	48 89 c7             	mov    %rax,%rdi
  40483d:	e8 5e e1 ff ff       	callq  4029a0 <__clang_call_terminate>
  404842:	66 2e 0f 1f 84 00 00 	nopw   %cs:0x0(%rax,%rax,1)
  404849:	00 00 00
  40484c:	0f 1f 40 00          	nopl   0x0(%rax)

0000000000404850 <_ZN4HTTP6Server19ConfigureSocketBindEv>:
  404850:	48 83 ec 18          	sub    $0x18,%rsp
  404854:	66 c7 44 24 08 02 00 	movw   $0x2,0x8(%rsp)
  40485b:	0f b7 47 0c          	movzwl 0xc(%rdi),%eax
  40485f:	66 c1 c0 08          	rol    $0x8,%ax
  404863:	66 89 44 24 0a       	mov    %ax,0xa(%rsp)
  404868:	c7 44 24 0c 00 00 00 	movl   $0x0,0xc(%rsp)
  40486f:	00
  404870:	8b 7f 18             	mov    0x18(%rdi),%edi
  404873:	48 8d 74 24 08       	lea    0x8(%rsp),%rsi
  404878:	ba 10 00 00 00       	mov    $0x10,%edx
  40487d:	e8 be d7 ff ff       	callq  402040 <bind@plt>
  404882:	89 c1                	mov    %eax,%ecx
  404884:	31 c0                	xor    %eax,%eax
  404886:	83 f9 ff             	cmp    $0xffffffff,%ecx
  404889:	74 05                	je     404890 <_ZN4HTTP6Server19ConfigureSocketBindEv+0x40>
  40488b:	48 83 c4 18          	add    $0x18,%rsp
  40488f:	c3                   	retq
  404890:	e8 9b d7 ff ff       	callq  402030 <__errno_location@plt>
  404895:	8b 00                	mov    (%rax),%eax
  404897:	31 c9                	xor    %ecx,%ecx
  404899:	83 f8 0d             	cmp    $0xd,%eax
  40489c:	0f 94 c1             	sete   %cl
  40489f:	ba 04 00 00 00       	mov    $0x4,%edx
  4048a4:	29 ca                	sub    %ecx,%edx
  4048a6:	83 f8 62             	cmp    $0x62,%eax
  4048a9:	b8 02 00 00 00       	mov    $0x2,%eax
  4048ae:	0f 45 c2             	cmovne %edx,%eax
  4048b1:	48 83 c4 18          	add    $0x18,%rsp
  4048b5:	c3                   	retq
  4048b6:	66 2e 0f 1f 84 00 00 	nopw   %cs:0x0(%rax,%rax,1)
  4048bd:	00 00 00

00000000004048c0 <_ZN4HTTP6Server21ConfigureSocketListenEv>:
  4048c0:	50                   	push   %rax
  4048c1:	8b 37                	mov    (%rdi),%esi
  4048c3:	8b 7f 18             	mov    0x18(%rdi),%edi
  4048c6:	e8 f5 d8 ff ff       	callq  4021c0 <listen@plt>
  4048cb:	31 c9                	xor    %ecx,%ecx
  4048cd:	83 f8 ff             	cmp    $0xffffffff,%eax
  4048d0:	0f 94 c1             	sete   %cl
  4048d3:	89 c8                	mov    %ecx,%eax
  4048d5:	59                   	pop    %rcx
  4048d6:	c3                   	retq
  4048d7:	66 0f 1f 84 00 00 00 	nopw   0x0(%rax,%rax,1)
  4048de:	00 00

00000000004048e0 <_ZN4HTTP6Server26ConfigureSocketSetReusableEv>:
  4048e0:	50                   	push   %rax
  4048e1:	c7 44 24 04 01 00 00 	movl   $0x1,0x4(%rsp)
  4048e8:	00
  4048e9:	8b 7f 18             	mov    0x18(%rdi),%edi
  4048ec:	48 8d 4c 24 04       	lea    0x4(%rsp),%rcx
  4048f1:	be 01 00 00 00       	mov    $0x1,%esi
  4048f6:	ba 02 00 00 00       	mov    $0x2,%edx
  4048fb:	41 b8 04 00 00 00    	mov    $0x4,%r8d
  404901:	e8 ea d9 ff ff       	callq  4022f0 <setsockopt@plt>
  404906:	31 c9                	xor    %ecx,%ecx
  404908:	83 f8 ff             	cmp    $0xffffffff,%eax
  40490b:	b8 06 00 00 00       	mov    $0x6,%eax
  404910:	0f 45 c1             	cmovne %ecx,%eax
  404913:	59                   	pop    %rcx
  404914:	c3                   	retq
  404915:	66 2e 0f 1f 84 00 00 	nopw   %cs:0x0(%rax,%rax,1)
  40491c:	00 00 00
  40491f:	90                   	nop

0000000000404920 <_ZN4HTTP6Server12CreateSocketEv>:
  404920:	53                   	push   %rbx
  404921:	48 83 ec 10          	sub    $0x10,%rsp
  404925:	48 89 fb             	mov    %rdi,%rbx
  404928:	bf 02 00 00 00       	mov    $0x2,%edi
  40492d:	be 01 00 00 00       	mov    $0x1,%esi
  404932:	31 d2                	xor    %edx,%edx
  404934:	e8 17 d7 ff ff       	callq  402050 <socket@plt>
  404939:	89 43 18             	mov    %eax,0x18(%rbx)
  40493c:	83 f8 ff             	cmp    $0xffffffff,%eax
  40493f:	74 41                	je     404982 <_ZN4HTTP6Server12CreateSocketEv+0x62>
  404941:	48 c7 04 24 20 48 40 	movq   $0x404820,(%rsp)
  404948:	00
  404949:	48 c7 44 24 08 00 00 	movq   $0x0,0x8(%rsp)
  404950:	00 00
  404952:	48 8b 73 28          	mov    0x28(%rbx),%rsi
  404956:	48 3b 73 30          	cmp    0x30(%rbx),%rsi
  40495a:	74 33                	je     40498f <_ZN4HTTP6Server12CreateSocketEv+0x6f>
  40495c:	48 c7 06 20 48 40 00 	movq   $0x404820,(%rsi)
  404963:	48 c7 46 08 00 00 00 	movq   $0x0,0x8(%rsi)
  40496a:	00
  40496b:	48 c7 46 18 e0 51 40 	movq   $0x4051e0,0x18(%rsi)
  404972:	00
  404973:	48 c7 46 10 00 52 40 	movq   $0x405200,0x10(%rsi)
  40497a:	00
  40497b:	48 83 43 28 20       	addq   $0x20,0x28(%rbx)
  404980:	eb 1c                	jmp    40499e <_ZN4HTTP6Server12CreateSocketEv+0x7e>
  404982:	b9 05 00 00 00       	mov    $0x5,%ecx
  404987:	89 c8                	mov    %ecx,%eax
  404989:	48 83 c4 10          	add    $0x10,%rsp
  40498d:	5b                   	pop    %rbx
  40498e:	c3                   	retq
  40498f:	48 83 c3 20          	add    $0x20,%rbx
  404993:	48 89 e2             	mov    %rsp,%rdx
  404996:	48 89 df             	mov    %rbx,%rdi
  404999:	e8 e2 05 00 00       	callq  404f80 <_ZNSt6vectorISt8functionIFvPN4HTTP6ServerEEESaIS5_EE17_M_realloc_insertIJMS2_DoFvvEEEEvN9__gnu_cxx17__normal_iteratorIPS5_S7_EEDpOT_>
  40499e:	31 c9                	xor    %ecx,%ecx
  4049a0:	89 c8                	mov    %ecx,%eax
  4049a2:	48 83 c4 10          	add    $0x10,%rsp
  4049a6:	5b                   	pop    %rbx
  4049a7:	c3                   	retq
  4049a8:	48 89 c7             	mov    %rax,%rdi
  4049ab:	e8 f0 df ff ff       	callq  4029a0 <__clang_call_terminate>

00000000004049b0 <_ZN4HTTP6Server17SignalClientDeathESt17reference_wrapperISt6threadE>:
  4049b0:	55                   	push   %rbp
  4049b1:	41 57                	push   %r15
  4049b3:	41 56                	push   %r14
  4049b5:	41 55                	push   %r13
  4049b7:	41 54                	push   %r12
  4049b9:	53                   	push   %rbx
  4049ba:	50                   	push   %rax
  4049bb:	48 89 f3             	mov    %rsi,%rbx
  4049be:	49 89 ff             	mov    %rdi,%r15
  4049c1:	4c 8d 77 38          	lea    0x38(%rdi),%r14
  4049c5:	b8 90 22 40 00       	mov    $0x402290,%eax
  4049ca:	48 85 c0             	test   %rax,%rax
  4049cd:	74 10                	je     4049df <_ZN4HTTP6Server17SignalClientDeathESt17reference_wrapperISt6threadE+0x2f>
  4049cf:	4c 89 f7             	mov    %r14,%rdi
  4049d2:	e8 49 d8 ff ff       	callq  402220 <pthread_mutex_lock@plt>
  4049d7:	85 c0                	test   %eax,%eax
  4049d9:	0f 85 ca 01 00 00    	jne    404ba9 <_ZN4HTTP6Server17SignalClientDeathESt17reference_wrapperISt6threadE+0x1f9>
  4049df:	48 89 df             	mov    %rbx,%rdi
  4049e2:	e8 e9 d8 ff ff       	callq  4022d0 <_ZNSt6thread6detachEv@plt>
  4049e7:	4d 8b 6f 60          	mov    0x60(%r15),%r13
  4049eb:	49 8b 7f 68          	mov    0x68(%r15),%rdi
  4049ef:	48 89 f8             	mov    %rdi,%rax
  4049f2:	4c 29 e8             	sub    %r13,%rax
  4049f5:	48 83 f8 20          	cmp    $0x20,%rax
  4049f9:	7c 59                	jl     404a54 <_ZN4HTTP6Server17SignalClientDeathESt17reference_wrapperISt6threadE+0xa4>
  4049fb:	48 c1 e8 05          	shr    $0x5,%rax
  4049ff:	48 8b 0b             	mov    (%rbx),%rcx
  404a02:	48 83 c0 01          	add    $0x1,%rax
  404a06:	66 2e 0f 1f 84 00 00 	nopw   %cs:0x0(%rax,%rax,1)
  404a0d:	00 00 00
  404a10:	49 8b 55 00          	mov    0x0(%r13),%rdx
  404a14:	48 39 4a 58          	cmp    %rcx,0x58(%rdx)
  404a18:	0f 84 a1 00 00 00    	je     404abf <_ZN4HTTP6Server17SignalClientDeathESt17reference_wrapperISt6threadE+0x10f>
  404a1e:	49 8b 55 08          	mov    0x8(%r13),%rdx
  404a22:	48 39 4a 58          	cmp    %rcx,0x58(%rdx)
  404a26:	0f 84 83 00 00 00    	je     404aaf <_ZN4HTTP6Server17SignalClientDeathESt17reference_wrapperISt6threadE+0xff>
  404a2c:	49 8b 55 10          	mov    0x10(%r13),%rdx
  404a30:	48 39 4a 58          	cmp    %rcx,0x58(%rdx)
  404a34:	74 7f                	je     404ab5 <_ZN4HTTP6Server17SignalClientDeathESt17reference_wrapperISt6threadE+0x105>
  404a36:	49 8b 55 18          	mov    0x18(%r13),%rdx
  404a3a:	48 39 4a 58          	cmp    %rcx,0x58(%rdx)
  404a3e:	74 7b                	je     404abb <_ZN4HTTP6Server17SignalClientDeathESt17reference_wrapperISt6threadE+0x10b>
  404a40:	49 83 c5 20          	add    $0x20,%r13
  404a44:	48 83 c0 ff          	add    $0xffffffffffffffff,%rax
  404a48:	48 83 f8 01          	cmp    $0x1,%rax
  404a4c:	7f c2                	jg     404a10 <_ZN4HTTP6Server17SignalClientDeathESt17reference_wrapperISt6threadE+0x60>
  404a4e:	48 89 f8             	mov    %rdi,%rax
  404a51:	4c 29 e8             	sub    %r13,%rax
  404a54:	48 c1 f8 03          	sar    $0x3,%rax
  404a58:	48 83 f8 03          	cmp    $0x3,%rax
  404a5c:	74 24                	je     404a82 <_ZN4HTTP6Server17SignalClientDeathESt17reference_wrapperISt6threadE+0xd2>
  404a5e:	48 83 f8 02          	cmp    $0x2,%rax
  404a62:	74 0f                	je     404a73 <_ZN4HTTP6Server17SignalClientDeathESt17reference_wrapperISt6threadE+0xc3>
  404a64:	48 83 f8 01          	cmp    $0x1,%rax
  404a68:	0f 85 36 01 00 00    	jne    404ba4 <_ZN4HTTP6Server17SignalClientDeathESt17reference_wrapperISt6threadE+0x1f4>
  404a6e:	48 8b 03             	mov    (%rbx),%rax
  404a71:	eb 2e                	jmp    404aa1 <_ZN4HTTP6Server17SignalClientDeathESt17reference_wrapperISt6threadE+0xf1>
  404a73:	48 8b 03             	mov    (%rbx),%rax
  404a76:	49 8b 4d 00          	mov    0x0(%r13),%rcx
  404a7a:	48 39 41 58          	cmp    %rax,0x58(%rcx)
  404a7e:	75 1d                	jne    404a9d <_ZN4HTTP6Server17SignalClientDeathESt17reference_wrapperISt6threadE+0xed>
  404a80:	eb 3d                	jmp    404abf <_ZN4HTTP6Server17SignalClientDeathESt17reference_wrapperISt6threadE+0x10f>
  404a82:	49 8b 4d 00          	mov    0x0(%r13),%rcx
  404a86:	48 8b 03             	mov    (%rbx),%rax
  404a89:	48 39 41 58          	cmp    %rax,0x58(%rcx)
  404a8d:	74 30                	je     404abf <_ZN4HTTP6Server17SignalClientDeathESt17reference_wrapperISt6threadE+0x10f>
  404a8f:	49 83 c5 08          	add    $0x8,%r13
  404a93:	49 8b 4d 00          	mov    0x0(%r13),%rcx
  404a97:	48 39 41 58          	cmp    %rax,0x58(%rcx)
  404a9b:	74 22                	je     404abf <_ZN4HTTP6Server17SignalClientDeathESt17reference_wrapperISt6threadE+0x10f>
  404a9d:	49 83 c5 08          	add    $0x8,%r13
  404aa1:	49 8b 4d 00          	mov    0x0(%r13),%rcx
  404aa5:	48 39 41 58          	cmp    %rax,0x58(%rcx)
  404aa9:	4c 0f 45 ef          	cmovne %rdi,%r13
  404aad:	eb 10                	jmp    404abf <_ZN4HTTP6Server17SignalClientDeathESt17reference_wrapperISt6threadE+0x10f>
  404aaf:	49 83 c5 08          	add    $0x8,%r13
  404ab3:	eb 0a                	jmp    404abf <_ZN4HTTP6Server17SignalClientDeathESt17reference_wrapperISt6threadE+0x10f>
  404ab5:	49 83 c5 10          	add    $0x10,%r13
  404ab9:	eb 04                	jmp    404abf <_ZN4HTTP6Server17SignalClientDeathESt17reference_wrapperISt6threadE+0x10f>
  404abb:	49 83 c5 18          	add    $0x18,%r13
  404abf:	49 39 fd             	cmp    %rdi,%r13
  404ac2:	0f 84 dc 00 00 00    	je     404ba4 <_ZN4HTTP6Server17SignalClientDeathESt17reference_wrapperISt6threadE+0x1f4>
  404ac8:	49 83 c5 08          	add    $0x8,%r13
  404acc:	49 39 fd             	cmp    %rdi,%r13
  404acf:	0f 84 93 00 00 00    	je     404b68 <_ZN4HTTP6Server17SignalClientDeathESt17reference_wrapperISt6threadE+0x1b8>
  404ad5:	48 89 fd             	mov    %rdi,%rbp
  404ad8:	4c 29 ed             	sub    %r13,%rbp
  404adb:	48 85 ed             	test   %rbp,%rbp
  404ade:	0f 8e 84 00 00 00    	jle    404b68 <_ZN4HTTP6Server17SignalClientDeathESt17reference_wrapperISt6threadE+0x1b8>
  404ae4:	48 c1 ed 03          	shr    $0x3,%rbp
  404ae8:	48 83 c5 01          	add    $0x1,%rbp
  404aec:	eb 18                	jmp    404b06 <_ZN4HTTP6Server17SignalClientDeathESt17reference_wrapperISt6threadE+0x156>
  404aee:	66 90                	xchg   %ax,%ax
  404af0:	48 89 df             	mov    %rbx,%rdi
  404af3:	e8 a8 d6 ff ff       	callq  4021a0 <_ZdlPv@plt>
  404af8:	49 83 c5 08          	add    $0x8,%r13
  404afc:	48 83 c5 ff          	add    $0xffffffffffffffff,%rbp
  404b00:	48 83 fd 01          	cmp    $0x1,%rbp
  404b04:	7e 5e                	jle    404b64 <_ZN4HTTP6Server17SignalClientDeathESt17reference_wrapperISt6threadE+0x1b4>
  404b06:	49 8b 5d f8          	mov    -0x8(%r13),%rbx
  404b0a:	49 8b 45 00          	mov    0x0(%r13),%rax
  404b0e:	49 c7 45 00 00 00 00 	movq   $0x0,0x0(%r13)
  404b15:	00
  404b16:	49 89 45 f8          	mov    %rax,-0x8(%r13)
  404b1a:	48 85 db             	test   %rbx,%rbx
  404b1d:	74 d9                	je     404af8 <_ZN4HTTP6Server17SignalClientDeathESt17reference_wrapperISt6threadE+0x148>
  404b1f:	48 83 7b 58 00       	cmpq   $0x0,0x58(%rbx)
  404b24:	75 7e                	jne    404ba4 <_ZN4HTTP6Server17SignalClientDeathESt17reference_wrapperISt6threadE+0x1f4>
  404b26:	48 8b 7b 28          	mov    0x28(%rbx),%rdi
  404b2a:	48 8d 43 38          	lea    0x38(%rbx),%rax
  404b2e:	48 39 c7             	cmp    %rax,%rdi
  404b31:	74 05                	je     404b38 <_ZN4HTTP6Server17SignalClientDeathESt17reference_wrapperISt6threadE+0x188>
  404b33:	e8 68 d6 ff ff       	callq  4021a0 <_ZdlPv@plt>
  404b38:	48 8b 7b 08          	mov    0x8(%rbx),%rdi
  404b3c:	48 8d 43 18          	lea    0x18(%rbx),%rax
  404b40:	48 39 c7             	cmp    %rax,%rdi
  404b43:	74 05                	je     404b4a <_ZN4HTTP6Server17SignalClientDeathESt17reference_wrapperISt6threadE+0x19a>
  404b45:	e8 56 d6 ff ff       	callq  4021a0 <_ZdlPv@plt>
  404b4a:	4c 8b 23             	mov    (%rbx),%r12
  404b4d:	4d 85 e4             	test   %r12,%r12
  404b50:	74 9e                	je     404af0 <_ZN4HTTP6Server17SignalClientDeathESt17reference_wrapperISt6threadE+0x140>
  404b52:	4c 89 e7             	mov    %r12,%rdi
  404b55:	e8 56 de ff ff       	callq  4029b0 <_ZN10ConnectionD1Ev>
  404b5a:	4c 89 e7             	mov    %r12,%rdi
  404b5d:	e8 3e d6 ff ff       	callq  4021a0 <_ZdlPv@plt>
  404b62:	eb 8c                	jmp    404af0 <_ZN4HTTP6Server17SignalClientDeathESt17reference_wrapperISt6threadE+0x140>
  404b64:	49 8b 7f 68          	mov    0x68(%r15),%rdi
  404b68:	48 83 c7 f8          	add    $0xfffffffffffffff8,%rdi
  404b6c:	49 89 7f 68          	mov    %rdi,0x68(%r15)
  404b70:	e8 5b 01 00 00       	callq  404cd0 <_ZNSt10unique_ptrIN4HTTP6ClientESt14default_deleteIS1_EED2Ev>
  404b75:	b8 90 22 40 00       	mov    $0x402290,%eax
  404b7a:	48 85 c0             	test   %rax,%rax
  404b7d:	74 16                	je     404b95 <_ZN4HTTP6Server17SignalClientDeathESt17reference_wrapperISt6threadE+0x1e5>
  404b7f:	4c 89 f7             	mov    %r14,%rdi
  404b82:	48 83 c4 08          	add    $0x8,%rsp
  404b86:	5b                   	pop    %rbx
  404b87:	41 5c                	pop    %r12
  404b89:	41 5d                	pop    %r13
  404b8b:	41 5e                	pop    %r14
  404b8d:	41 5f                	pop    %r15
  404b8f:	5d                   	pop    %rbp
  404b90:	e9 cb d5 ff ff       	jmpq   402160 <pthread_mutex_unlock@plt>
  404b95:	48 83 c4 08          	add    $0x8,%rsp
  404b99:	5b                   	pop    %rbx
  404b9a:	41 5c                	pop    %r12
  404b9c:	41 5d                	pop    %r13
  404b9e:	41 5e                	pop    %r14
  404ba0:	41 5f                	pop    %r15
  404ba2:	5d                   	pop    %rbp
  404ba3:	c3                   	retq
  404ba4:	e8 b7 d4 ff ff       	callq  402060 <_ZSt9terminatev@plt>
  404ba9:	89 c7                	mov    %eax,%edi
  404bab:	e8 80 d5 ff ff       	callq  402130 <_ZSt20__throw_system_errori@plt>
  404bb0:	48 89 c3             	mov    %rax,%rbx
  404bb3:	eb 15                	jmp    404bca <_ZN4HTTP6Server17SignalClientDeathESt17reference_wrapperISt6threadE+0x21a>
  404bb5:	48 89 c3             	mov    %rax,%rbx
  404bb8:	b8 90 22 40 00       	mov    $0x402290,%eax
  404bbd:	48 85 c0             	test   %rax,%rax
  404bc0:	74 08                	je     404bca <_ZN4HTTP6Server17SignalClientDeathESt17reference_wrapperISt6threadE+0x21a>
  404bc2:	4c 89 f7             	mov    %r14,%rdi
  404bc5:	e8 96 d5 ff ff       	callq  402160 <pthread_mutex_unlock@plt>
  404bca:	48 89 df             	mov    %rbx,%rdi
  404bcd:	e8 ce dd ff ff       	callq  4029a0 <__clang_call_terminate>
  404bd2:	66 2e 0f 1f 84 00 00 	nopw   %cs:0x0(%rax,%rax,1)
  404bd9:	00 00 00
  404bdc:	0f 1f 40 00          	nopl   0x0(%rax)

0000000000404be0 <_ZNSt10unique_ptrISt6threadSt14default_deleteIS0_EED2Ev>:
  404be0:	53                   	push   %rbx
  404be1:	48 89 fb             	mov    %rdi,%rbx
  404be4:	48 8b 3f             	mov    (%rdi),%rdi
  404be7:	48 85 ff             	test   %rdi,%rdi
  404bea:	74 0b                	je     404bf7 <_ZNSt10unique_ptrISt6threadSt14default_deleteIS0_EED2Ev+0x17>
  404bec:	48 83 3f 00          	cmpq   $0x0,(%rdi)
  404bf0:	75 0e                	jne    404c00 <_ZNSt10unique_ptrISt6threadSt14default_deleteIS0_EED2Ev+0x20>
  404bf2:	e8 a9 d5 ff ff       	callq  4021a0 <_ZdlPv@plt>
  404bf7:	48 c7 03 00 00 00 00 	movq   $0x0,(%rbx)
  404bfe:	5b                   	pop    %rbx
  404bff:	c3                   	retq
  404c00:	e8 5b d4 ff ff       	callq  402060 <_ZSt9terminatev@plt>
  404c05:	66 2e 0f 1f 84 00 00 	nopw   %cs:0x0(%rax,%rax,1)
  404c0c:	00 00 00
  404c0f:	90                   	nop

0000000000404c10 <_ZNSt6vectorISt10unique_ptrIN4HTTP6ClientESt14default_deleteIS2_EESaIS5_EED2Ev>:
  404c10:	41 57                	push   %r15
  404c12:	41 56                	push   %r14
  404c14:	53                   	push   %rbx
  404c15:	48 8b 1f             	mov    (%rdi),%rbx
  404c18:	4c 8b 7f 08          	mov    0x8(%rdi),%r15
  404c1c:	4c 39 fb             	cmp    %r15,%rbx
  404c1f:	74 23                	je     404c44 <_ZNSt6vectorISt10unique_ptrIN4HTTP6ClientESt14default_deleteIS2_EESaIS5_EED2Ev+0x34>
  404c21:	49 89 fe             	mov    %rdi,%r14
  404c24:	66 2e 0f 1f 84 00 00 	nopw   %cs:0x0(%rax,%rax,1)
  404c2b:	00 00 00
  404c2e:	66 90                	xchg   %ax,%ax
  404c30:	48 89 df             	mov    %rbx,%rdi
  404c33:	e8 98 00 00 00       	callq  404cd0 <_ZNSt10unique_ptrIN4HTTP6ClientESt14default_deleteIS1_EED2Ev>
  404c38:	48 83 c3 08          	add    $0x8,%rbx
  404c3c:	49 39 df             	cmp    %rbx,%r15
  404c3f:	75 ef                	jne    404c30 <_ZNSt6vectorISt10unique_ptrIN4HTTP6ClientESt14default_deleteIS2_EESaIS5_EED2Ev+0x20>
  404c41:	49 8b 1e             	mov    (%r14),%rbx
  404c44:	48 85 db             	test   %rbx,%rbx
  404c47:	74 0d                	je     404c56 <_ZNSt6vectorISt10unique_ptrIN4HTTP6ClientESt14default_deleteIS2_EESaIS5_EED2Ev+0x46>
  404c49:	48 89 df             	mov    %rbx,%rdi
  404c4c:	5b                   	pop    %rbx
  404c4d:	41 5e                	pop    %r14
  404c4f:	41 5f                	pop    %r15
  404c51:	e9 4a d5 ff ff       	jmpq   4021a0 <_ZdlPv@plt>
  404c56:	5b                   	pop    %rbx
  404c57:	41 5e                	pop    %r14
  404c59:	41 5f                	pop    %r15
  404c5b:	c3                   	retq
  404c5c:	0f 1f 40 00          	nopl   0x0(%rax)

0000000000404c60 <_ZNSt6vectorISt8functionIFvPN4HTTP6ServerEEESaIS5_EED2Ev>:
  404c60:	41 57                	push   %r15
  404c62:	41 56                	push   %r14
  404c64:	53                   	push   %rbx
  404c65:	48 8b 1f             	mov    (%rdi),%rbx
  404c68:	4c 8b 7f 08          	mov    0x8(%rdi),%r15
  404c6c:	4c 39 fb             	cmp    %r15,%rbx
  404c6f:	74 33                	je     404ca4 <_ZNSt6vectorISt8functionIFvPN4HTTP6ServerEEESaIS5_EED2Ev+0x44>
  404c71:	49 89 fe             	mov    %rdi,%r14
  404c74:	eb 13                	jmp    404c89 <_ZNSt6vectorISt8functionIFvPN4HTTP6ServerEEESaIS5_EED2Ev+0x29>
  404c76:	66 2e 0f 1f 84 00 00 	nopw   %cs:0x0(%rax,%rax,1)
  404c7d:	00 00 00
  404c80:	48 83 c3 20          	add    $0x20,%rbx
  404c84:	49 39 df             	cmp    %rbx,%r15
  404c87:	74 18                	je     404ca1 <_ZNSt6vectorISt8functionIFvPN4HTTP6ServerEEESaIS5_EED2Ev+0x41>
  404c89:	48 8b 43 10          	mov    0x10(%rbx),%rax
  404c8d:	48 85 c0             	test   %rax,%rax
  404c90:	74 ee                	je     404c80 <_ZNSt6vectorISt8functionIFvPN4HTTP6ServerEEESaIS5_EED2Ev+0x20>
  404c92:	48 89 df             	mov    %rbx,%rdi
  404c95:	48 89 de             	mov    %rbx,%rsi
  404c98:	ba 03 00 00 00       	mov    $0x3,%edx
  404c9d:	ff d0                	callq  *%rax
  404c9f:	eb df                	jmp    404c80 <_ZNSt6vectorISt8functionIFvPN4HTTP6ServerEEESaIS5_EED2Ev+0x20>
  404ca1:	49 8b 1e             	mov    (%r14),%rbx
  404ca4:	48 85 db             	test   %rbx,%rbx
  404ca7:	74 0d                	je     404cb6 <_ZNSt6vectorISt8functionIFvPN4HTTP6ServerEEESaIS5_EED2Ev+0x56>
  404ca9:	48 89 df             	mov    %rbx,%rdi
  404cac:	5b                   	pop    %rbx
  404cad:	41 5e                	pop    %r14
  404caf:	41 5f                	pop    %r15
  404cb1:	e9 ea d4 ff ff       	jmpq   4021a0 <_ZdlPv@plt>
  404cb6:	5b                   	pop    %rbx
  404cb7:	41 5e                	pop    %r14
  404cb9:	41 5f                	pop    %r15
  404cbb:	c3                   	retq
  404cbc:	48 89 c7             	mov    %rax,%rdi
  404cbf:	e8 dc dc ff ff       	callq  4029a0 <__clang_call_terminate>
  404cc4:	66 2e 0f 1f 84 00 00 	nopw   %cs:0x0(%rax,%rax,1)
  404ccb:	00 00 00
  404cce:	66 90                	xchg   %ax,%ax

0000000000404cd0 <_ZNSt10unique_ptrIN4HTTP6ClientESt14default_deleteIS1_EED2Ev>:
  404cd0:	41 57                	push   %r15
  404cd2:	41 56                	push   %r14
  404cd4:	53                   	push   %rbx
  404cd5:	49 89 fe             	mov    %rdi,%r14
  404cd8:	48 8b 1f             	mov    (%rdi),%rbx
  404cdb:	48 85 db             	test   %rbx,%rbx
  404cde:	74 4b                	je     404d2b <_ZNSt10unique_ptrIN4HTTP6ClientESt14default_deleteIS1_EED2Ev+0x5b>
  404ce0:	48 83 7b 58 00       	cmpq   $0x0,0x58(%rbx)
  404ce5:	75 51                	jne    404d38 <_ZNSt10unique_ptrIN4HTTP6ClientESt14default_deleteIS1_EED2Ev+0x68>
  404ce7:	48 8b 7b 28          	mov    0x28(%rbx),%rdi
  404ceb:	48 8d 43 38          	lea    0x38(%rbx),%rax
  404cef:	48 39 c7             	cmp    %rax,%rdi
  404cf2:	74 05                	je     404cf9 <_ZNSt10unique_ptrIN4HTTP6ClientESt14default_deleteIS1_EED2Ev+0x29>
  404cf4:	e8 a7 d4 ff ff       	callq  4021a0 <_ZdlPv@plt>
  404cf9:	48 8b 7b 08          	mov    0x8(%rbx),%rdi
  404cfd:	48 8d 43 18          	lea    0x18(%rbx),%rax
  404d01:	48 39 c7             	cmp    %rax,%rdi
  404d04:	74 05                	je     404d0b <_ZNSt10unique_ptrIN4HTTP6ClientESt14default_deleteIS1_EED2Ev+0x3b>
  404d06:	e8 95 d4 ff ff       	callq  4021a0 <_ZdlPv@plt>
  404d0b:	4c 8b 3b             	mov    (%rbx),%r15
  404d0e:	4d 85 ff             	test   %r15,%r15
  404d11:	74 10                	je     404d23 <_ZNSt10unique_ptrIN4HTTP6ClientESt14default_deleteIS1_EED2Ev+0x53>
  404d13:	4c 89 ff             	mov    %r15,%rdi
  404d16:	e8 95 dc ff ff       	callq  4029b0 <_ZN10ConnectionD1Ev>
  404d1b:	4c 89 ff             	mov    %r15,%rdi
  404d1e:	e8 7d d4 ff ff       	callq  4021a0 <_ZdlPv@plt>
  404d23:	48 89 df             	mov    %rbx,%rdi
  404d26:	e8 75 d4 ff ff       	callq  4021a0 <_ZdlPv@plt>
  404d2b:	49 c7 06 00 00 00 00 	movq   $0x0,(%r14)
  404d32:	5b                   	pop    %rbx
  404d33:	41 5e                	pop    %r14
  404d35:	41 5f                	pop    %r15
  404d37:	c3                   	retq
  404d38:	e8 23 d3 ff ff       	callq  402060 <_ZSt9terminatev@plt>
  404d3d:	0f 1f 00             	nopl   (%rax)

0000000000404d40 <_ZN6Logger6SevereERKNSt7__cxx1112basic_stringIcSt11char_traitsIcESaIcEEES7_>:
  404d40:	41 56                	push   %r14
  404d42:	53                   	push   %rbx
  404d43:	50                   	push   %rax
  404d44:	49 89 f6             	mov    %rsi,%r14
  404d47:	48 89 fb             	mov    %rdi,%rbx
  404d4a:	bf c0 91 40 00       	mov    $0x4091c0,%edi
  404d4f:	be 7f 62 40 00       	mov    $0x40627f,%esi
  404d54:	ba 18 00 00 00       	mov    $0x18,%edx
  404d59:	e8 72 d4 ff ff       	callq  4021d0 <_ZSt16__ostream_insertIcSt11char_traitsIcEERSt13basic_ostreamIT_T0_ES6_PKS3_l@plt>
  404d5e:	48 8b 33             	mov    (%rbx),%rsi
  404d61:	48 8b 53 08          	mov    0x8(%rbx),%rdx
  404d65:	bf c0 91 40 00       	mov    $0x4091c0,%edi
  404d6a:	e8 61 d4 ff ff       	callq  4021d0 <_ZSt16__ostream_insertIcSt11char_traitsIcEERSt13basic_ostreamIT_T0_ES6_PKS3_l@plt>
  404d6f:	48 89 c3             	mov    %rax,%rbx
  404d72:	be 4d 62 40 00       	mov    $0x40624d,%esi
  404d77:	ba 0b 00 00 00       	mov    $0xb,%edx
  404d7c:	48 89 c7             	mov    %rax,%rdi
  404d7f:	e8 4c d4 ff ff       	callq  4021d0 <_ZSt16__ostream_insertIcSt11char_traitsIcEERSt13basic_ostreamIT_T0_ES6_PKS3_l@plt>
  404d84:	49 8b 36             	mov    (%r14),%rsi
  404d87:	49 8b 56 08          	mov    0x8(%r14),%rdx
  404d8b:	48 89 df             	mov    %rbx,%rdi
  404d8e:	e8 3d d4 ff ff       	callq  4021d0 <_ZSt16__ostream_insertIcSt11char_traitsIcEERSt13basic_ostreamIT_T0_ES6_PKS3_l@plt>
  404d93:	be 5d 60 40 00       	mov    $0x40605d,%esi
  404d98:	ba 05 00 00 00       	mov    $0x5,%edx
  404d9d:	48 89 c7             	mov    %rax,%rdi
  404da0:	48 83 c4 08          	add    $0x8,%rsp
  404da4:	5b                   	pop    %rbx
  404da5:	41 5e                	pop    %r14
  404da7:	e9 24 d4 ff ff       	jmpq   4021d0 <_ZSt16__ostream_insertIcSt11char_traitsIcEERSt13basic_ostreamIT_T0_ES6_PKS3_l@plt>
  404dac:	0f 1f 40 00          	nopl   0x0(%rax)

0000000000404db0 <_ZN4HTTP22ConfigurationExceptionD0Ev>:
  404db0:	53                   	push   %rbx
  404db1:	48 89 fb             	mov    %rdi,%rbx
  404db4:	e8 57 d5 ff ff       	callq  402310 <_ZNSt9exceptionD2Ev@plt>
  404db9:	48 89 df             	mov    %rbx,%rdi
  404dbc:	5b                   	pop    %rbx
  404dbd:	e9 de d3 ff ff       	jmpq   4021a0 <_ZdlPv@plt>
  404dc2:	66 2e 0f 1f 84 00 00 	nopw   %cs:0x0(%rax,%rax,1)
  404dc9:	00 00 00
  404dcc:	0f 1f 40 00          	nopl   0x0(%rax)

0000000000404dd0 <_ZNK4HTTP22ConfigurationException4whatEv>:
  404dd0:	48 8b 47 08          	mov    0x8(%rdi),%rax
  404dd4:	c3                   	retq
  404dd5:	66 2e 0f 1f 84 00 00 	nopw   %cs:0x0(%rax,%rax,1)
  404ddc:	00 00 00
  404ddf:	90                   	nop

0000000000404de0 <_ZNSt6thread11_State_implINS_8_InvokerISt5tupleIJMN4HTTP6ServerEFvvEPS4_EEEEED0Ev>:
  404de0:	53                   	push   %rbx
  404de1:	48 89 fb             	mov    %rdi,%rbx
  404de4:	e8 f7 d2 ff ff       	callq  4020e0 <_ZNSt6thread6_StateD2Ev@plt>
  404de9:	48 89 df             	mov    %rbx,%rdi
  404dec:	5b                   	pop    %rbx
  404ded:	e9 ae d3 ff ff       	jmpq   4021a0 <_ZdlPv@plt>
  404df2:	66 2e 0f 1f 84 00 00 	nopw   %cs:0x0(%rax,%rax,1)
  404df9:	00 00 00
  404dfc:	0f 1f 40 00          	nopl   0x0(%rax)

0000000000404e00 <_ZNSt6thread11_State_implINS_8_InvokerISt5tupleIJMN4HTTP6ServerEFvvEPS4_EEEEE6_M_runEv>:
  404e00:	48 89 f8             	mov    %rdi,%rax
  404e03:	48 8b 7f 08          	mov    0x8(%rdi),%rdi
  404e07:	48 8b 48 10          	mov    0x10(%rax),%rcx
  404e0b:	48 03 78 18          	add    0x18(%rax),%rdi
  404e0f:	f6 c1 01             	test   $0x1,%cl
  404e12:	74 08                	je     404e1c <_ZNSt6thread11_State_implINS_8_InvokerISt5tupleIJMN4HTTP6ServerEFvvEPS4_EEEEE6_M_runEv+0x1c>
  404e14:	48 8b 07             	mov    (%rdi),%rax
  404e17:	48 8b 4c 01 ff       	mov    -0x1(%rcx,%rax,1),%rcx
  404e1c:	ff e1                	jmpq   *%rcx
  404e1e:	66 90                	xchg   %ax,%ax

0000000000404e20 <_ZNSt6vectorISt10unique_ptrIN4HTTP6ClientESt14default_deleteIS2_EESaIS5_EE17_M_realloc_insertIJS5_EEEvN9__gnu_cxx17__normal_iteratorIPS5_S7_EEDpOT_>:
  404e20:	55                   	push   %rbp
  404e21:	41 57                	push   %r15
  404e23:	41 56                	push   %r14
  404e25:	41 55                	push   %r13
  404e27:	41 54                	push   %r12
  404e29:	53                   	push   %rbx
  404e2a:	48 83 ec 18          	sub    $0x18,%rsp
  404e2e:	48 89 f5             	mov    %rsi,%rbp
  404e31:	48 8b 37             	mov    (%rdi),%rsi
  404e34:	4c 8b 77 08          	mov    0x8(%rdi),%r14
  404e38:	4c 89 f0             	mov    %r14,%rax
  404e3b:	48 29 f0             	sub    %rsi,%rax
  404e3e:	48 b9 f8 ff ff ff ff 	movabs $0x7ffffffffffffff8,%rcx
  404e45:	ff ff 7f
  404e48:	48 39 c8             	cmp    %rcx,%rax
  404e4b:	0f 84 16 01 00 00    	je     404f67 <_ZNSt6vectorISt10unique_ptrIN4HTTP6ClientESt14default_deleteIS2_EESaIS5_EE17_M_realloc_insertIJS5_EEEvN9__gnu_cxx17__normal_iteratorIPS5_S7_EEDpOT_+0x147>
  404e51:	49 89 d4             	mov    %rdx,%r12
  404e54:	48 89 7c 24 10       	mov    %rdi,0x10(%rsp)
  404e59:	48 89 c1             	mov    %rax,%rcx
  404e5c:	48 c1 f9 03          	sar    $0x3,%rcx
  404e60:	48 85 c0             	test   %rax,%rax
  404e63:	b8 01 00 00 00       	mov    $0x1,%eax
  404e68:	48 0f 45 c1          	cmovne %rcx,%rax
  404e6c:	4c 8d 2c 08          	lea    (%rax,%rcx,1),%r13
  404e70:	4c 89 ea             	mov    %r13,%rdx
  404e73:	48 c1 ea 3c          	shr    $0x3c,%rdx
  404e77:	48 ba ff ff ff ff ff 	movabs $0xfffffffffffffff,%rdx
  404e7e:	ff ff 0f
  404e81:	4c 0f 45 ea          	cmovne %rdx,%r13
  404e85:	48 01 c8             	add    %rcx,%rax
  404e88:	4c 0f 42 ea          	cmovb  %rdx,%r13
  404e8c:	48 89 eb             	mov    %rbp,%rbx
  404e8f:	48 29 f3             	sub    %rsi,%rbx
  404e92:	48 c1 fb 03          	sar    $0x3,%rbx
  404e96:	4d 85 ed             	test   %r13,%r13
  404e99:	74 18                	je     404eb3 <_ZNSt6vectorISt10unique_ptrIN4HTTP6ClientESt14default_deleteIS2_EESaIS5_EE17_M_realloc_insertIJS5_EEEvN9__gnu_cxx17__normal_iteratorIPS5_S7_EEDpOT_+0x93>
  404e9b:	4a 8d 3c ed 00 00 00 	lea    0x0(,%r13,8),%rdi
  404ea2:	00
  404ea3:	49 89 f7             	mov    %rsi,%r15
  404ea6:	e8 05 d3 ff ff       	callq  4021b0 <_Znwm@plt>
  404eab:	4c 89 fe             	mov    %r15,%rsi
  404eae:	49 89 c7             	mov    %rax,%r15
  404eb1:	eb 03                	jmp    404eb6 <_ZNSt6vectorISt10unique_ptrIN4HTTP6ClientESt14default_deleteIS2_EESaIS5_EE17_M_realloc_insertIJS5_EEEvN9__gnu_cxx17__normal_iteratorIPS5_S7_EEDpOT_+0x96>
  404eb3:	45 31 ff             	xor    %r15d,%r15d
  404eb6:	49 8b 04 24          	mov    (%r12),%rax
  404eba:	49 c7 04 24 00 00 00 	movq   $0x0,(%r12)
  404ec1:	00
  404ec2:	49 89 04 df          	mov    %rax,(%r15,%rbx,8)
  404ec6:	4d 89 fc             	mov    %r15,%r12
  404ec9:	48 89 74 24 08       	mov    %rsi,0x8(%rsp)
  404ece:	48 39 ee             	cmp    %rbp,%rsi
  404ed1:	74 59                	je     404f2c <_ZNSt6vectorISt10unique_ptrIN4HTTP6ClientESt14default_deleteIS2_EESaIS5_EE17_M_realloc_insertIJS5_EEEvN9__gnu_cxx17__normal_iteratorIPS5_S7_EEDpOT_+0x10c>
  404ed3:	4d 89 fc             	mov    %r15,%r12
  404ed6:	48 8b 5c 24 08       	mov    0x8(%rsp),%rbx
  404edb:	0f 1f 44 00 00       	nopl   0x0(%rax,%rax,1)
  404ee0:	48 8b 03             	mov    (%rbx),%rax
  404ee3:	48 c7 03 00 00 00 00 	movq   $0x0,(%rbx)
  404eea:	49 89 04 24          	mov    %rax,(%r12)
  404eee:	48 89 df             	mov    %rbx,%rdi
  404ef1:	e8 da fd ff ff       	callq  404cd0 <_ZNSt10unique_ptrIN4HTTP6ClientESt14default_deleteIS1_EED2Ev>
  404ef6:	48 83 c3 08          	add    $0x8,%rbx
  404efa:	49 83 c4 08          	add    $0x8,%r12
  404efe:	48 39 dd             	cmp    %rbx,%rbp
  404f01:	75 dd                	jne    404ee0 <_ZNSt6vectorISt10unique_ptrIN4HTTP6ClientESt14default_deleteIS2_EESaIS5_EE17_M_realloc_insertIJS5_EEEvN9__gnu_cxx17__normal_iteratorIPS5_S7_EEDpOT_+0xc0>
  404f03:	eb 27                	jmp    404f2c <_ZNSt6vectorISt10unique_ptrIN4HTTP6ClientESt14default_deleteIS2_EESaIS5_EE17_M_realloc_insertIJS5_EEEvN9__gnu_cxx17__normal_iteratorIPS5_S7_EEDpOT_+0x10c>
  404f05:	66 2e 0f 1f 84 00 00 	nopw   %cs:0x0(%rax,%rax,1)
  404f0c:	00 00 00
  404f0f:	90                   	nop
  404f10:	48 8b 45 00          	mov    0x0(%rbp),%rax
  404f14:	48 c7 45 00 00 00 00 	movq   $0x0,0x0(%rbp)
  404f1b:	00
  404f1c:	49 89 04 24          	mov    %rax,(%r12)
  404f20:	48 89 ef             	mov    %rbp,%rdi
  404f23:	e8 a8 fd ff ff       	callq  404cd0 <_ZNSt10unique_ptrIN4HTTP6ClientESt14default_deleteIS1_EED2Ev>
  404f28:	48 83 c5 08          	add    $0x8,%rbp
  404f2c:	49 83 c4 08          	add    $0x8,%r12
  404f30:	49 39 ee             	cmp    %rbp,%r14
  404f33:	75 db                	jne    404f10 <_ZNSt6vectorISt10unique_ptrIN4HTTP6ClientESt14default_deleteIS2_EESaIS5_EE17_M_realloc_insertIJS5_EEEvN9__gnu_cxx17__normal_iteratorIPS5_S7_EEDpOT_+0xf0>
  404f35:	48 8b 7c 24 08       	mov    0x8(%rsp),%rdi
  404f3a:	48 85 ff             	test   %rdi,%rdi
  404f3d:	74 05                	je     404f44 <_ZNSt6vectorISt10unique_ptrIN4HTTP6ClientESt14default_deleteIS2_EESaIS5_EE17_M_realloc_insertIJS5_EEEvN9__gnu_cxx17__normal_iteratorIPS5_S7_EEDpOT_+0x124>
  404f3f:	e8 5c d2 ff ff       	callq  4021a0 <_ZdlPv@plt>
  404f44:	48 8b 4c 24 10       	mov    0x10(%rsp),%rcx
  404f49:	4c 89 39             	mov    %r15,(%rcx)
  404f4c:	4c 89 61 08          	mov    %r12,0x8(%rcx)
  404f50:	4b 8d 04 ef          	lea    (%r15,%r13,8),%rax
  404f54:	48 89 41 10          	mov    %rax,0x10(%rcx)
  404f58:	48 83 c4 18          	add    $0x18,%rsp
  404f5c:	5b                   	pop    %rbx
  404f5d:	41 5c                	pop    %r12
  404f5f:	41 5d                	pop    %r13
  404f61:	41 5e                	pop    %r14
  404f63:	41 5f                	pop    %r15
  404f65:	5d                   	pop    %rbp
  404f66:	c3                   	retq
  404f67:	bf ba 60 40 00       	mov    $0x4060ba,%edi
  404f6c:	e8 8f d1 ff ff       	callq  402100 <_ZSt20__throw_length_errorPKc@plt>
  404f71:	66 2e 0f 1f 84 00 00 	nopw   %cs:0x0(%rax,%rax,1)
  404f78:	00 00 00
  404f7b:	0f 1f 44 00 00       	nopl   0x0(%rax,%rax,1)

0000000000404f80 <_ZNSt6vectorISt8functionIFvPN4HTTP6ServerEEESaIS5_EE17_M_realloc_insertIJMS2_DoFvvEEEEvN9__gnu_cxx17__normal_iteratorIPS5_S7_EEDpOT_>:
  404f80:	55                   	push   %rbp
  404f81:	41 57                	push   %r15
  404f83:	41 56                	push   %r14
  404f85:	41 55                	push   %r13
  404f87:	41 54                	push   %r12
  404f89:	53                   	push   %rbx
  404f8a:	48 83 ec 28          	sub    $0x28,%rsp
  404f8e:	48 89 f5             	mov    %rsi,%rbp
  404f91:	48 8b 37             	mov    (%rdi),%rsi
  404f94:	4c 8b 77 08          	mov    0x8(%rdi),%r14
  404f98:	4c 89 f0             	mov    %r14,%rax
  404f9b:	48 29 f0             	sub    %rsi,%rax
  404f9e:	48 b9 e0 ff ff ff ff 	movabs $0x7fffffffffffffe0,%rcx
  404fa5:	ff ff 7f
  404fa8:	48 39 c8             	cmp    %rcx,%rax
  404fab:	0f 84 df 01 00 00    	je     405190 <_ZNSt6vectorISt8functionIFvPN4HTTP6ServerEEESaIS5_EE17_M_realloc_insertIJMS2_DoFvvEEEEvN9__gnu_cxx17__normal_iteratorIPS5_S7_EEDpOT_+0x210>
  404fb1:	49 89 d4             	mov    %rdx,%r12
  404fb4:	48 89 7c 24 20       	mov    %rdi,0x20(%rsp)
  404fb9:	48 89 c1             	mov    %rax,%rcx
  404fbc:	48 c1 f9 05          	sar    $0x5,%rcx
  404fc0:	48 85 c0             	test   %rax,%rax
  404fc3:	b8 01 00 00 00       	mov    $0x1,%eax
  404fc8:	48 0f 45 c1          	cmovne %rcx,%rax
  404fcc:	4c 8d 2c 08          	lea    (%rax,%rcx,1),%r13
  404fd0:	4c 89 ea             	mov    %r13,%rdx
  404fd3:	48 c1 ea 3a          	shr    $0x3a,%rdx
  404fd7:	48 ba ff ff ff ff ff 	movabs $0x3ffffffffffffff,%rdx
  404fde:	ff ff 03
  404fe1:	4c 0f 45 ea          	cmovne %rdx,%r13
  404fe5:	48 01 c8             	add    %rcx,%rax
  404fe8:	4c 0f 42 ea          	cmovb  %rdx,%r13
  404fec:	48 89 eb             	mov    %rbp,%rbx
  404fef:	48 29 f3             	sub    %rsi,%rbx
  404ff2:	48 c1 fb 05          	sar    $0x5,%rbx
  404ff6:	4d 85 ed             	test   %r13,%r13
  404ff9:	48 89 f1             	mov    %rsi,%rcx
  404ffc:	74 17                	je     405015 <_ZNSt6vectorISt8functionIFvPN4HTTP6ServerEEESaIS5_EE17_M_realloc_insertIJMS2_DoFvvEEEEvN9__gnu_cxx17__normal_iteratorIPS5_S7_EEDpOT_+0x95>
  404ffe:	4c 89 ef             	mov    %r13,%rdi
  405001:	48 c1 e7 05          	shl    $0x5,%rdi
  405005:	49 89 cf             	mov    %rcx,%r15
  405008:	e8 a3 d1 ff ff       	callq  4021b0 <_Znwm@plt>
  40500d:	4c 89 f9             	mov    %r15,%rcx
  405010:	49 89 c7             	mov    %rax,%r15
  405013:	eb 03                	jmp    405018 <_ZNSt6vectorISt8functionIFvPN4HTTP6ServerEEESaIS5_EE17_M_realloc_insertIJMS2_DoFvvEEEEvN9__gnu_cxx17__normal_iteratorIPS5_S7_EEDpOT_+0x98>
  405015:	45 31 ff             	xor    %r15d,%r15d
  405018:	f3 41 0f 6f 04 24    	movdqu (%r12),%xmm0
  40501e:	48 c1 e3 05          	shl    $0x5,%rbx
  405022:	49 c7 44 1f 10 00 00 	movq   $0x0,0x10(%r15,%rbx,1)
  405029:	00 00
  40502b:	66 48 0f 7e c0       	movq   %xmm0,%rax
  405030:	48 85 c0             	test   %rax,%rax
  405033:	74 1e                	je     405053 <_ZNSt6vectorISt8functionIFvPN4HTTP6ServerEEESaIS5_EE17_M_realloc_insertIJMS2_DoFvvEEEEvN9__gnu_cxx17__normal_iteratorIPS5_S7_EEDpOT_+0xd3>
  405035:	49 8d 04 1f          	lea    (%r15,%rbx,1),%rax
  405039:	48 83 c0 10          	add    $0x10,%rax
  40503d:	f3 41 0f 7f 04 1f    	movdqu %xmm0,(%r15,%rbx,1)
  405043:	49 c7 44 1f 18 e0 51 	movq   $0x4051e0,0x18(%r15,%rbx,1)
  40504a:	40 00
  40504c:	48 c7 00 00 52 40 00 	movq   $0x405200,(%rax)
  405053:	4d 89 fc             	mov    %r15,%r12
  405056:	48 89 4c 24 08       	mov    %rcx,0x8(%rsp)
  40505b:	48 39 e9             	cmp    %rbp,%rcx
  40505e:	0f 84 7a 00 00 00    	je     4050de <_ZNSt6vectorISt8functionIFvPN4HTTP6ServerEEESaIS5_EE17_M_realloc_insertIJMS2_DoFvvEEEEvN9__gnu_cxx17__normal_iteratorIPS5_S7_EEDpOT_+0x15e>
  405064:	4d 89 fc             	mov    %r15,%r12
  405067:	48 8b 5c 24 08       	mov    0x8(%rsp),%rbx
  40506c:	eb 0f                	jmp    40507d <_ZNSt6vectorISt8functionIFvPN4HTTP6ServerEEESaIS5_EE17_M_realloc_insertIJMS2_DoFvvEEEEvN9__gnu_cxx17__normal_iteratorIPS5_S7_EEDpOT_+0xfd>
  40506e:	66 90                	xchg   %ax,%ax
  405070:	49 83 c4 20          	add    $0x20,%r12
  405074:	48 83 c3 20          	add    $0x20,%rbx
  405078:	48 39 eb             	cmp    %rbp,%rbx
  40507b:	74 61                	je     4050de <_ZNSt6vectorISt8functionIFvPN4HTTP6ServerEEESaIS5_EE17_M_realloc_insertIJMS2_DoFvvEEEEvN9__gnu_cxx17__normal_iteratorIPS5_S7_EEDpOT_+0x15e>
  40507d:	49 c7 44 24 10 00 00 	movq   $0x0,0x10(%r12)
  405084:	00 00
  405086:	0f 10 03             	movups (%rbx),%xmm0
  405089:	0f 29 44 24 10       	movaps %xmm0,0x10(%rsp)
  40508e:	41 0f 10 04 24       	movups (%r12),%xmm0
  405093:	0f 11 03             	movups %xmm0,(%rbx)
  405096:	66 0f 6f 44 24 10    	movdqa 0x10(%rsp),%xmm0
  40509c:	f3 41 0f 7f 04 24    	movdqu %xmm0,(%r12)
  4050a2:	48 8b 43 10          	mov    0x10(%rbx),%rax
  4050a6:	49 8b 4c 24 10       	mov    0x10(%r12),%rcx
  4050ab:	48 89 4b 10          	mov    %rcx,0x10(%rbx)
  4050af:	49 89 44 24 10       	mov    %rax,0x10(%r12)
  4050b4:	48 8b 43 18          	mov    0x18(%rbx),%rax
  4050b8:	49 8b 4c 24 18       	mov    0x18(%r12),%rcx
  4050bd:	48 89 4b 18          	mov    %rcx,0x18(%rbx)
  4050c1:	49 89 44 24 18       	mov    %rax,0x18(%r12)
  4050c6:	48 8b 43 10          	mov    0x10(%rbx),%rax
  4050ca:	48 85 c0             	test   %rax,%rax
  4050cd:	74 a1                	je     405070 <_ZNSt6vectorISt8functionIFvPN4HTTP6ServerEEESaIS5_EE17_M_realloc_insertIJMS2_DoFvvEEEEvN9__gnu_cxx17__normal_iteratorIPS5_S7_EEDpOT_+0xf0>
  4050cf:	48 89 df             	mov    %rbx,%rdi
  4050d2:	48 89 de             	mov    %rbx,%rsi
  4050d5:	ba 03 00 00 00       	mov    $0x3,%edx
  4050da:	ff d0                	callq  *%rax
  4050dc:	eb 92                	jmp    405070 <_ZNSt6vectorISt8functionIFvPN4HTTP6ServerEEESaIS5_EE17_M_realloc_insertIJMS2_DoFvvEEEEvN9__gnu_cxx17__normal_iteratorIPS5_S7_EEDpOT_+0xf0>
  4050de:	49 83 c4 20          	add    $0x20,%r12
  4050e2:	49 39 ee             	cmp    %rbp,%r14
  4050e5:	75 46                	jne    40512d <_ZNSt6vectorISt8functionIFvPN4HTTP6ServerEEESaIS5_EE17_M_realloc_insertIJMS2_DoFvvEEEEvN9__gnu_cxx17__normal_iteratorIPS5_S7_EEDpOT_+0x1ad>
  4050e7:	48 8b 7c 24 08       	mov    0x8(%rsp),%rdi
  4050ec:	48 85 ff             	test   %rdi,%rdi
  4050ef:	74 05                	je     4050f6 <_ZNSt6vectorISt8functionIFvPN4HTTP6ServerEEESaIS5_EE17_M_realloc_insertIJMS2_DoFvvEEEEvN9__gnu_cxx17__normal_iteratorIPS5_S7_EEDpOT_+0x176>
  4050f1:	e8 aa d0 ff ff       	callq  4021a0 <_ZdlPv@plt>
  4050f6:	48 8b 44 24 20       	mov    0x20(%rsp),%rax
  4050fb:	4c 89 38             	mov    %r15,(%rax)
  4050fe:	4c 89 60 08          	mov    %r12,0x8(%rax)
  405102:	49 c1 e5 05          	shl    $0x5,%r13
  405106:	4d 01 fd             	add    %r15,%r13
  405109:	4c 89 68 10          	mov    %r13,0x10(%rax)
  40510d:	48 83 c4 28          	add    $0x28,%rsp
  405111:	5b                   	pop    %rbx
  405112:	41 5c                	pop    %r12
  405114:	41 5d                	pop    %r13
  405116:	41 5e                	pop    %r14
  405118:	41 5f                	pop    %r15
  40511a:	5d                   	pop    %rbp
  40511b:	c3                   	retq
  40511c:	0f 1f 40 00          	nopl   0x0(%rax)
  405120:	49 83 c4 20          	add    $0x20,%r12
  405124:	48 83 c5 20          	add    $0x20,%rbp
  405128:	4c 39 f5             	cmp    %r14,%rbp
  40512b:	74 ba                	je     4050e7 <_ZNSt6vectorISt8functionIFvPN4HTTP6ServerEEESaIS5_EE17_M_realloc_insertIJMS2_DoFvvEEEEvN9__gnu_cxx17__normal_iteratorIPS5_S7_EEDpOT_+0x167>
  40512d:	49 c7 44 24 10 00 00 	movq   $0x0,0x10(%r12)
  405134:	00 00
  405136:	0f 10 45 00          	movups 0x0(%rbp),%xmm0
  40513a:	0f 29 44 24 10       	movaps %xmm0,0x10(%rsp)
  40513f:	41 0f 10 04 24       	movups (%r12),%xmm0
  405144:	0f 11 45 00          	movups %xmm0,0x0(%rbp)
  405148:	66 0f 6f 44 24 10    	movdqa 0x10(%rsp),%xmm0
  40514e:	f3 41 0f 7f 04 24    	movdqu %xmm0,(%r12)
  405154:	48 8b 45 10          	mov    0x10(%rbp),%rax
  405158:	49 8b 4c 24 10       	mov    0x10(%r12),%rcx
  40515d:	48 89 4d 10          	mov    %rcx,0x10(%rbp)
  405161:	49 89 44 24 10       	mov    %rax,0x10(%r12)
  405166:	48 8b 45 18          	mov    0x18(%rbp),%rax
  40516a:	49 8b 4c 24 18       	mov    0x18(%r12),%rcx
  40516f:	48 89 4d 18          	mov    %rcx,0x18(%rbp)
  405173:	49 89 44 24 18       	mov    %rax,0x18(%r12)
  405178:	48 8b 45 10          	mov    0x10(%rbp),%rax
  40517c:	48 85 c0             	test   %rax,%rax
  40517f:	74 9f                	je     405120 <_ZNSt6vectorISt8functionIFvPN4HTTP6ServerEEESaIS5_EE17_M_realloc_insertIJMS2_DoFvvEEEEvN9__gnu_cxx17__normal_iteratorIPS5_S7_EEDpOT_+0x1a0>
  405181:	48 89 ef             	mov    %rbp,%rdi
  405184:	48 89 ee             	mov    %rbp,%rsi
  405187:	ba 03 00 00 00       	mov    $0x3,%edx
  40518c:	ff d0                	callq  *%rax
  40518e:	eb 90                	jmp    405120 <_ZNSt6vectorISt8functionIFvPN4HTTP6ServerEEESaIS5_EE17_M_realloc_insertIJMS2_DoFvvEEEEvN9__gnu_cxx17__normal_iteratorIPS5_S7_EEDpOT_+0x1a0>
  405190:	bf ba 60 40 00       	mov    $0x4060ba,%edi
  405195:	e8 66 cf ff ff       	callq  402100 <_ZSt20__throw_length_errorPKc@plt>
  40519a:	48 89 c7             	mov    %rax,%rdi
  40519d:	e8 fe d7 ff ff       	callq  4029a0 <__clang_call_terminate>
  4051a2:	48 89 c7             	mov    %rax,%rdi
  4051a5:	e8 f6 d7 ff ff       	callq  4029a0 <__clang_call_terminate>
  4051aa:	66 0f 1f 44 00 00    	nopw   0x0(%rax,%rax,1)

00000000004051b0 <_ZNSt8functionIFvPN4HTTP6ServerEEEC2IMS1_DoFvvEvvEET_>:
  4051b0:	48 c7 47 10 00 00 00 	movq   $0x0,0x10(%rdi)
  4051b7:	00
  4051b8:	48 85 f6             	test   %rsi,%rsi
  4051bb:	74 17                	je     4051d4 <_ZNSt8functionIFvPN4HTTP6ServerEEEC2IMS1_DoFvvEvvEET_+0x24>
  4051bd:	48 89 37             	mov    %rsi,(%rdi)
  4051c0:	48 89 57 08          	mov    %rdx,0x8(%rdi)
  4051c4:	48 c7 47 18 e0 51 40 	movq   $0x4051e0,0x18(%rdi)
  4051cb:	00
  4051cc:	48 c7 47 10 00 52 40 	movq   $0x405200,0x10(%rdi)
  4051d3:	00
  4051d4:	c3                   	retq
  4051d5:	66 2e 0f 1f 84 00 00 	nopw   %cs:0x0(%rax,%rax,1)
  4051dc:	00 00 00
  4051df:	90                   	nop

00000000004051e0 <_ZNSt17_Function_handlerIFvPN4HTTP6ServerEEMS1_DoFvvEE9_M_invokeERKSt9_Any_dataOS2_>:
  4051e0:	48 89 f8             	mov    %rdi,%rax
  4051e3:	48 8b 3e             	mov    (%rsi),%rdi
  4051e6:	48 8b 08             	mov    (%rax),%rcx
  4051e9:	48 03 78 08          	add    0x8(%rax),%rdi
  4051ed:	f6 c1 01             	test   $0x1,%cl
  4051f0:	74 08                	je     4051fa <_ZNSt17_Function_handlerIFvPN4HTTP6ServerEEMS1_DoFvvEE9_M_invokeERKSt9_Any_dataOS2_+0x1a>
  4051f2:	48 8b 07             	mov    (%rdi),%rax
  4051f5:	48 8b 4c 01 ff       	mov    -0x1(%rcx,%rax,1),%rcx
  4051fa:	ff e1                	jmpq   *%rcx
  4051fc:	0f 1f 40 00          	nopl   0x0(%rax)

0000000000405200 <_ZNSt17_Function_handlerIFvPN4HTTP6ServerEEMS1_DoFvvEE10_M_managerERSt9_Any_dataRKS7_St18_Manager_operation>:
  405200:	83 fa 02             	cmp    $0x2,%edx
  405203:	74 13                	je     405218 <_ZNSt17_Function_handlerIFvPN4HTTP6ServerEEMS1_DoFvvEE10_M_managerERSt9_Any_dataRKS7_St18_Manager_operation+0x18>
  405205:	83 fa 01             	cmp    $0x1,%edx
  405208:	74 17                	je     405221 <_ZNSt17_Function_handlerIFvPN4HTTP6ServerEEMS1_DoFvvEE10_M_managerERSt9_Any_dataRKS7_St18_Manager_operation+0x21>
  40520a:	85 d2                	test   %edx,%edx
  40520c:	75 10                	jne    40521e <_ZNSt17_Function_handlerIFvPN4HTTP6ServerEEMS1_DoFvvEE10_M_managerERSt9_Any_dataRKS7_St18_Manager_operation+0x1e>
  40520e:	48 c7 07 d8 63 40 00 	movq   $0x4063d8,(%rdi)
  405215:	31 c0                	xor    %eax,%eax
  405217:	c3                   	retq
  405218:	0f 10 06             	movups (%rsi),%xmm0
  40521b:	0f 11 07             	movups %xmm0,(%rdi)
  40521e:	31 c0                	xor    %eax,%eax
  405220:	c3                   	retq
  405221:	48 89 37             	mov    %rsi,(%rdi)
  405224:	31 c0                	xor    %eax,%eax
  405226:	c3                   	retq
  405227:	66 0f 1f 84 00 00 00 	nopw   0x0(%rax,%rax,1)
  40522e:	00 00

0000000000405230 <_ZlsRSoN4HTTP17ServerLaunchErrorE>:
  405230:	41 56                	push   %r14
  405232:	53                   	push   %rbx
  405233:	50                   	push   %rax
  405234:	89 f0                	mov    %esi,%eax
  405236:	89 f6                	mov    %esi,%esi
  405238:	83 f8 07             	cmp    $0x7,%eax
  40523b:	73 4b                	jae    405288 <_ZlsRSoN4HTTP17ServerLaunchErrorE+0x58>
  40523d:	49 89 fe             	mov    %rdi,%r14
  405240:	48 8b 1c f5 00 64 40 	mov    0x406400(,%rsi,8),%rbx
  405247:	00
  405248:	48 85 db             	test   %rbx,%rbx
  40524b:	74 18                	je     405265 <_ZlsRSoN4HTTP17ServerLaunchErrorE+0x35>
  40524d:	48 89 df             	mov    %rbx,%rdi
  405250:	e8 6b ce ff ff       	callq  4020c0 <strlen@plt>
  405255:	4c 89 f7             	mov    %r14,%rdi
  405258:	48 89 de             	mov    %rbx,%rsi
  40525b:	48 89 c2             	mov    %rax,%rdx
  40525e:	e8 6d cf ff ff       	callq  4021d0 <_ZSt16__ostream_insertIcSt11char_traitsIcEERSt13basic_ostreamIT_T0_ES6_PKS3_l@plt>
  405263:	eb 18                	jmp    40527d <_ZlsRSoN4HTTP17ServerLaunchErrorE+0x4d>
  405265:	49 8b 06             	mov    (%r14),%rax
  405268:	48 8b 40 e8          	mov    -0x18(%rax),%rax
  40526c:	49 8d 3c 06          	lea    (%r14,%rax,1),%rdi
  405270:	41 8b 74 06 20       	mov    0x20(%r14,%rax,1),%esi
  405275:	83 ce 01             	or     $0x1,%esi
  405278:	e8 23 d0 ff ff       	callq  4022a0 <_ZNSt9basic_iosIcSt11char_traitsIcEE5clearESt12_Ios_Iostate@plt>
  40527d:	4c 89 f0             	mov    %r14,%rax
  405280:	48 83 c4 08          	add    $0x8,%rsp
  405284:	5b                   	pop    %rbx
  405285:	41 5e                	pop    %r14
  405287:	c3                   	retq
  405288:	bf b3 64 40 00       	mov    $0x4064b3,%edi
  40528d:	ba 07 00 00 00       	mov    $0x7,%edx
  405292:	31 c0                	xor    %eax,%eax
  405294:	e8 a7 cf ff ff       	callq  402240 <_ZSt24__throw_out_of_range_fmtPKcz@plt>
  405299:	0f 1f 80 00 00 00 00 	nopl   0x0(%rax)

00000000004052a0 <__libc_csu_init>:
  4052a0:	f3 0f 1e fa          	endbr64
  4052a4:	41 57                	push   %r15
  4052a6:	4c 8d 3d 0b 38 00 00 	lea    0x380b(%rip),%r15        # 408ab8 <__frame_dummy_init_array_entry>
  4052ad:	41 56                	push   %r14
  4052af:	49 89 d6             	mov    %rdx,%r14
  4052b2:	41 55                	push   %r13
  4052b4:	49 89 f5             	mov    %rsi,%r13
  4052b7:	41 54                	push   %r12
  4052b9:	41 89 fc             	mov    %edi,%r12d
  4052bc:	55                   	push   %rbp
  4052bd:	48 8d 2d 14 38 00 00 	lea    0x3814(%rip),%rbp        # 408ad8 <__do_global_dtors_aux_fini_array_entry>
  4052c4:	53                   	push   %rbx
  4052c5:	4c 29 fd             	sub    %r15,%rbp
  4052c8:	48 83 ec 08          	sub    $0x8,%rsp
  4052cc:	e8 2f cd ff ff       	callq  402000 <_init>
  4052d1:	48 c1 fd 03          	sar    $0x3,%rbp
  4052d5:	74 1f                	je     4052f6 <__libc_csu_init+0x56>
  4052d7:	31 db                	xor    %ebx,%ebx
  4052d9:	0f 1f 80 00 00 00 00 	nopl   0x0(%rax)
  4052e0:	4c 89 f2             	mov    %r14,%rdx
  4052e3:	4c 89 ee             	mov    %r13,%rsi
  4052e6:	44 89 e7             	mov    %r12d,%edi
  4052e9:	41 ff 14 df          	callq  *(%r15,%rbx,8)
  4052ed:	48 83 c3 01          	add    $0x1,%rbx
  4052f1:	48 39 dd             	cmp    %rbx,%rbp
  4052f4:	75 ea                	jne    4052e0 <__libc_csu_init+0x40>
  4052f6:	48 83 c4 08          	add    $0x8,%rsp
  4052fa:	5b                   	pop    %rbx
  4052fb:	5d                   	pop    %rbp
  4052fc:	41 5c                	pop    %r12
  4052fe:	41 5d                	pop    %r13
  405300:	41 5e                	pop    %r14
  405302:	41 5f                	pop    %r15
  405304:	c3                   	retq
  405305:	66 66 2e 0f 1f 84 00 	data16 nopw %cs:0x0(%rax,%rax,1)
  40530c:	00 00 00 00

0000000000405310 <__libc_csu_fini>:
  405310:	f3 0f 1e fa          	endbr64
  405314:	c3                   	retq

Disassembly of section .fini:

0000000000405318 <_fini>:
  405318:	f3 0f 1e fa          	endbr64
  40531c:	48 83 ec 08          	sub    $0x8,%rsp
  405320:	48 83 c4 08          	add    $0x8,%rsp
  405324:	c3                   	retq
